

Microchip MPLAB XC8 Assembler V2.32 build 20210201212658 
                                                                                               Tue Jan 18 14:08:51 2022

Microchip MPLAB XC8 C Compiler v2.32 (Free license) build 20210201212658 Og1 
     1                           	processor	18F25K42
     2                           	fnconf	rparam,??,?,0
     3                           	pagewidth 120
     4                           	opt	flic
     5                           	psect	idataCOMRAM,global,class=CODE,delta=1,noexec
     6                           	psect	idataBANK0,global,class=CODE,delta=1,noexec
     7                           	psect	nvBANK0,global,class=BANK0,space=1,delta=1,lowdata,noexec
     8                           	psect	cinit,global,reloc=2,class=CODE,delta=1
     9                           	psect	bssCOMRAM,global,class=COMRAM,space=1,delta=1,lowdata,noexec
    10                           	psect	dataCOMRAM,global,class=COMRAM,space=1,delta=1,lowdata,noexec
    11                           	psect	bssBANK0,global,class=BANK0,space=1,delta=1,lowdata,noexec
    12                           	psect	dataBANK0,global,class=BANK0,space=1,delta=1,lowdata,noexec
    13                           	psect	bssBANK1,global,class=BANK1,space=1,delta=1,lowdata,noexec
    14                           	psect	cstackBANK0,global,class=BANK0,space=1,delta=1,lowdata,noexec
    15                           	psect	cstackCOMRAM,global,class=COMRAM,space=1,delta=1,lowdata,noexec
    16                           	psect	text0,global,reloc=2,class=CODE,delta=1
    17                           	psect	text1,global,reloc=2,class=CODE,delta=1
    18                           	psect	text2,global,reloc=2,class=CODE,delta=1
    19                           	psect	text3,global,reloc=2,class=CODE,delta=1
    20                           	psect	text4,global,reloc=2,class=CODE,delta=1,group=1
    21                           	psect	text5,global,reloc=2,class=CODE,delta=1
    22                           	psect	text6,global,reloc=2,class=CODE,delta=1
    23                           	psect	text7,global,reloc=2,class=CODE,delta=1,group=1
    24                           	psect	text8,global,reloc=2,class=CODE,delta=1
    25                           	psect	text9,global,reloc=2,class=CODE,delta=1
    26                           	psect	text10,global,reloc=2,class=CODE,delta=1
    27                           	psect	text11,global,reloc=2,class=CODE,delta=1
    28                           	psect	text12,global,reloc=2,class=CODE,delta=1,group=2
    29                           	psect	text13,global,reloc=2,class=CODE,delta=1
    30                           	psect	text14,global,reloc=2,class=CODE,delta=1
    31                           	psect	text15,global,reloc=2,class=CODE,delta=1
    32                           	psect	text16,global,reloc=2,class=CODE,delta=1
    33                           	psect	text17,global,reloc=2,class=CODE,delta=1
    34                           	psect	text18,global,reloc=2,class=CODE,delta=1
    35                           	psect	text19,global,reloc=2,class=CODE,delta=1
    36                           	psect	text20,global,reloc=2,class=CODE,delta=1
    37                           	psect	text21,global,reloc=2,class=CODE,delta=1
    38                           	psect	text22,global,reloc=2,class=CODE,delta=1
    39                           	psect	text23,global,reloc=2,class=CODE,delta=1
    40                           	psect	text24,global,reloc=2,class=CODE,delta=1
    41                           	psect	text25,global,reloc=2,class=CODE,delta=1
    42                           	psect	text26,global,reloc=2,class=CODE,delta=1
    43                           	psect	text27,global,reloc=2,class=CODE,delta=1
    44                           	psect	ivt0x8,global,reloc=2,class=CODE,delta=1,noexec,keep,optim=
    45                           	psect	intsave_regs,global,class=BIGRAM,space=1,delta=1,noexec
    46                           	psect	rparam,global,class=COMRAM,space=1,delta=1,noexec
    47                           	psect	idloc,global,abs,ovrld,class=IDLOC,space=5,delta=1,noexec
    48                           	psect	config,global,abs,ovrld,class=CONFIG,space=4,delta=1,noexec
    49                           	dabs	1,0x7D3,45,_SettingData
    50  0000                     
    51                           ; Version 2.35
    52                           ; Generated 05/05/2021 GMT
    53                           ; 
    54                           ; Copyright © 2021, Microchip Technology Inc. and its subsidiaries ("Microchip")
    55                           ; All rights reserved.
    56                           ; 
    57                           ; This software is developed by Microchip Technology Inc. and its subsidiaries ("Microch
      +                          ip").
    58                           ; 
    59                           ; Redistribution and use in source and binary forms, with or without modification, are
    60                           ; permitted provided that the following conditions are met:
    61                           ; 
    62                           ;     1. Redistributions of source code must retain the above copyright notice, this lis
      +                          t of
    63                           ;        conditions and the following disclaimer.
    64                           ; 
    65                           ;     2. Redistributions in binary form must reproduce the above copyright notice, this 
      +                          list
    66                           ;        of conditions and the following disclaimer in the documentation and/or other
    67                           ;        materials provided with the distribution. Publication is not required when
    68                           ;        this file is used in an embedded application.
    69                           ; 
    70                           ;     3. Microchip's name may not be used to endorse or promote products derived from th
      +                          is
    71                           ;        software without specific prior written permission.
    72                           ; 
    73                           ; THIS SOFTWARE IS PROVIDED BY MICROCHIP "AS IS" AND ANY EXPRESS OR IMPLIED WARRANTIES,
    74                           ; INCLUDING, BUT NOT LIMITED TO, THE IMPLIED WARRANTIES OF MERCHANTABILITY AND FITNESS F
      +                          OR
    75                           ; PURPOSE ARE DISCLAIMED.  IN NO EVENT SHALL MICROCHIP BE LIABLE FOR ANY DIRECT, INDIREC
      +                          T,
    76                           ; INCIDENTAL, SPECIAL, EXEMPLARY, OR CONSEQUENTIAL DAMAGES (INCLUDING BUT NOT LIMITED TO
    77                           ; PROCUREMENT OF SUBSTITUTE GOODS OR SERVICES; LOSS OF USE, DATA OR PROFITS; OR BUSINESS
    78                           ; INTERRUPTION) HOWSOEVER CAUSED AND ON ANY THEORY OF LIABILITY, WHETHER IN CONTRACT, ST
      +                          RICT
    79                           ; LIABILITY, OR TORT (INCLUDING NEGLIGENCE OR OTHERWISE) ARISING IN ANY WAY OUT OF THE U
      +                          SE OF
    80                           ; THIS SOFTWARE, EVEN IF ADVISED OF THE POSSIBILITY OF SUCH DAMAGE.
    81                           ; 
    82                           ; 
    83                           ; Code-generator required, PIC18F25K42 Definitions
    84                           ; 
    85                           ; SFR Addresses
    86  0000                     
    87 ;; Function _IOCBF2_DefaultInterruptHandler is unused but had its address taken
    88  0000                     
    89                           	psect	idataCOMRAM
    90  0016AA                     __pidataCOMRAM:
    91                           	callstack 0
    92                           
    93                           ;initializer for _gConPollPacket
    94  0016AA  00                 	db	0
    95  0016AB  00                 	db	0
    96  0016AC  83                 	db	131
    97  0016AD  83                 	db	131
    98  0016AE  7D                 	db	125
    99  0016AF  7D                 	db	125
   100  0016B0  00                 	db	0
   101  0016B1  00                 	db	0
   102                           
   103                           ;initializer for _sy_high
   104  0016B2  018E               	dw	398
   105                           
   106                           ;initializer for _sy_center
   107  0016B4  00FC               	dw	252
   108                           
   109                           ;initializer for _sy_low
   110  0016B6  008C               	dw	140
   111                           
   112                           ;initializer for _sx_high
   113  0016B8  0181               	dw	385
   114                           
   115                           ;initializer for _sx_center
   116  0016BA  00FE               	dw	254
   117                           
   118                           ;initializer for _sx_low
   119  0016BC  0083               	dw	131
   120                           
   121                           ;initializer for _gCommandPollMask
   122  0016BE  BF                 	db	191
   123                           
   124                           ;initializer for _gCommandOriginMask
   125  0016BF  BE                 	db	190
   126                           
   127                           ;initializer for _gLowThreshold
   128  0016C0  32                 	db	50
   129                           
   130                           ;initializer for _gInStatus
   131  0016C1  20                 	db	32
   132                           
   133                           ;initializer for _gInBitCounter
   134  0016C2  08                 	db	8
   135                           
   136                           ;initializer for _gConBitCounter
   137  0016C3  08                 	db	8
   138                           
   139                           	psect	idataBANK0
   140  0015F8                     __pidataBANK0:
   141                           	callstack 0
   142                           
   143                           ;initializer for _gConOriginResponse
   144  0015F8  00                 	db	0
   145  0015F9  80                 	db	128
   146  0015FA  80                 	db	128
   147  0015FB  80                 	db	128
   148  0015FC  80                 	db	128
   149  0015FD  80                 	db	128
   150  0015FE  00                 	db	0
   151  0015FF  00                 	db	0
   152  001600  02                 	db	2
   153  001601  02                 	db	2
   154                           
   155                           ;initializer for _gConProbeResponse
   156  001602  09                 	db	9
   157  001603  00                 	db	0
   158  001604  03                 	db	3
   159                           
   160                           ;initializer for _cy_lowMultiplier
   161  001605  00C9               	dw	201
   162                           
   163                           ;initializer for _cy_highMultiplier
   164  001607  00C3               	dw	195
   165                           
   166                           ;initializer for _cx_lowMultiplier
   167  001609  00B1               	dw	177
   168                           
   169                           ;initializer for _cx_highMultiplier
   170  00160B  0101               	dw	257
   171                           
   172                           ;initializer for _sy_lowMultiplier
   173  00160D  00E4               	dw	228
   174                           
   175                           ;initializer for _sy_highMultiplier
   176  00160F  00AF               	dw	175
   177                           
   178                           ;initializer for _sx_lowMultiplier
   179  001611  00E8               	dw	232
   180                           
   181                           ;initializer for _sx_highMultiplier
   182  001613  00C8               	dw	200
   183                           
   184                           ;initializer for _cy_high
   185  001615  0181               	dw	385
   186                           
   187                           ;initializer for _cy_center
   188  001617  00FE               	dw	254
   189                           
   190                           ;initializer for _cy_low
   191  001619  007F               	dw	127
   192                           
   193                           ;initializer for _cx_high
   194  00161B  0163               	dw	355
   195                           
   196                           ;initializer for _cx_center
   197  00161D  00FC               	dw	252
   198                           
   199                           ;initializer for _cx_low
   200  00161F  006C               	dw	108
   201                           
   202                           	psect	nvBANK0
   203  0000E3                     __pnvBANK0:
   204                           	callstack 0
   205  0000E3                     _IOCBF2_InterruptHandler:
   206                           	callstack 0
   207  0000E3                     	ds	2
   208  0000                     _PIR7bits	set	14759
   209  0000                     _PIR0bits	set	14752
   210  0000                     _NVMDAT	set	14819
   211  0000                     _NVMADRL	set	14816
   212  0000                     _NVMCON2	set	14822
   213  0000                     _NVMCON1bits	set	14821
   214  0000                     _IPR1bits	set	14721
   215  0000                     _PIR1bits	set	14753
   216  0000                     _PIE1bits	set	14737
   217  0000                     _PMD7	set	14791
   218  0000                     _PMD6	set	14790
   219  0000                     _PMD5	set	14789
   220  0000                     _PMD4	set	14788
   221  0000                     _PMD3	set	14787
   222  0000                     _PMD2	set	14786
   223  0000                     _PMD1	set	14785
   224  0000                     _PMD0	set	14784
   225  0000                     _OSCTUNE	set	14814
   226  0000                     _OSCFRQ	set	14815
   227  0000                     _OSCEN	set	14813
   228  0000                     _OSCCON3	set	14811
   229  0000                     _OSCCON1	set	14809
   230  0000                     _SMT1SIGPPS	set	15058
   231  0000                     _RB3PPS	set	14859
   232  0000                     _IOCBPbits	set	14933
   233  0000                     _IOCBNbits	set	14934
   234  0000                     _IOCBFbits	set	14935
   235  0000                     _INLVLE	set	14980
   236  0000                     _INLVLC	set	14948
   237  0000                     _INLVLB	set	14932
   238  0000                     _INLVLA	set	14916
   239  0000                     _SLRCONC	set	14947
   240  0000                     _SLRCONB	set	14931
   241  0000                     _SLRCONA	set	14915
   242  0000                     _ODCONC	set	14946
   243  0000                     _ODCONB	set	14930
   244  0000                     _ODCONA	set	14914
   245  0000                     _RC4I2C	set	14955
   246  0000                     _RC3I2C	set	14954
   247  0000                     _RB2I2C	set	14939
   248  0000                     _RB1I2C	set	14938
   249  0000                     _WPUC	set	14945
   250  0000                     _WPUA	set	14913
   251  0000                     _WPUB	set	14929
   252  0000                     _WPUE	set	14977
   253  0000                     _ANSELA	set	14912
   254  0000                     _ANSELB	set	14928
   255  0000                     _ANSELC	set	14944
   256  0000                     _ADCON1bits	set	16121
   257  0000                     _ADERRL	set	16098
   258  0000                     _ADERRH	set	16099
   259  0000                     _ADPREVL	set	16109
   260  0000                     _ADPREVH	set	16110
   261  0000                     _ADFLTRL	set	16102
   262  0000                     _ADFLTRH	set	16103
   263  0000                     _ADSTATbits	set	16124
   264  0000                     _ADACCL	set	16104
   265  0000                     _ADACCH	set	16105
   266  0000                     _ADCON2bits	set	16122
   267  0000                     _ADCNT	set	16107
   268  0000                     _ADCON3bits	set	16123
   269  0000                     _ADRESL	set	16111
   270  0000                     _ADRESH	set	16112
   271  0000                     _ADCON0bits	set	16120
   272  0000                     _ADCON0	set	16120
   273  0000                     _ADCLK	set	16127
   274  0000                     _ADACT	set	16126
   275  0000                     _ADREF	set	16125
   276  0000                     _ADSTAT	set	16124
   277  0000                     _ADCON3	set	16123
   278  0000                     _ADCON2	set	16122
   279  0000                     _ADCON1	set	16121
   280  0000                     _ADPREH	set	16119
   281  0000                     _ADPREL	set	16118
   282  0000                     _ADCAP	set	16117
   283  0000                     _ADACQH	set	16116
   284  0000                     _ADACQL	set	16115
   285  0000                     _ADPCH	set	16113
   286  0000                     _ADRPT	set	16108
   287  0000                     _ADACCU	set	16106
   288  0000                     _ADSTPTH	set	16101
   289  0000                     _ADSTPTL	set	16100
   290  0000                     _ADUTHH	set	16097
   291  0000                     _ADUTHL	set	16096
   292  0000                     _ADLTHH	set	16095
   293  0000                     _ADLTHL	set	16094
   294  0000                     _SMT1TMR	set	16146
   295  0000                     _SMT1CPR	set	16149
   296  0000                     _SMT1CPW	set	16152
   297  0000                     _SMT1PR	set	16155
   298  0000                     _CCPTMRS0bits	set	16222
   299  0000                     _SMT1CPWL	set	16152
   300  0000                     _SMT1STATbits	set	16160
   301  0000                     _SMT1CON0bits	set	16158
   302  0000                     _SMT1CON1bits	set	16159
   303  0000                     _SMT1PRL	set	16155
   304  0000                     _SMT1PRH	set	16156
   305  0000                     _SMT1PRU	set	16157
   306  0000                     _SMT1SIG	set	16162
   307  0000                     _SMT1WIN	set	16163
   308  0000                     _SMT1CLK	set	16161
   309  0000                     _SMT1STAT	set	16160
   310  0000                     _SMT1CON1	set	16159
   311  0000                     _SMT1CON0	set	16158
   312  0000                     _PORTBbits	set	16331
   313  0000                     _PORTCbits	set	16332
   314  0000                     _PORTAbits	set	16330
   315  0000                     _PR4	set	16287
   316  0000                     _TMR4	set	16286
   317  0000                     _T4CONbits	set	16288
   318  0000                     _T4RSTbits	set	16291
   319  0000                     _T4HLTbits	set	16289
   320  0000                     _T4CON	set	16288
   321  0000                     _T4TMR	set	16286
   322  0000                     _T4PR	set	16287
   323  0000                     _T4RST	set	16291
   324  0000                     _T4HLT	set	16289
   325  0000                     _T4CLKCON	set	16290
   326  0000                     _CCP1CONbits	set	16254
   327  0000                     _CCPR1L	set	16252
   328  0000                     _CCPR1H	set	16253
   329  0000                     _CCP1CON	set	16254
   330  0000                     _TABLAT	set	16373
   331  0000                     _TBLPTRL	set	16374
   332  0000                     _TBLPTRH	set	16375
   333  0000                     _TBLPTRU	set	16376
   334  0000                     _INTCON0bits	set	16338
   335  0000                     _TRISC	set	16324
   336  0000                     _TRISB	set	16323
   337  0000                     _TRISA	set	16322
   338  0000                     _LATC	set	16316
   339  0000                     _LATB	set	16315
   340  0000                     _LATA	set	16314
   341                           
   342                           ; #config settings
   343                           
   344                           	psect	cinit
   345  001196                     __pcinit:
   346                           	callstack 0
   347  001196                     start_initialization:
   348                           	callstack 0
   349  001196                     __initialization:
   350                           	callstack 0
   351                           
   352                           ; Initialize objects allocated to BANK0 (41 bytes)
   353                           ; load TBLPTR registers with __pidataBANK0
   354  001196  0EF8               	movlw	low __pidataBANK0
   355  001198  6EF6               	movwf	tblptrl,c
   356  00119A  0E15               	movlw	high __pidataBANK0
   357  00119C  6EF7               	movwf	tblptrh,c
   358  00119E  0E00               	movlw	low (__pidataBANK0 shr (0+16))
   359  0011A0  6EF8               	movwf	tblptru,c
   360  0011A2  EE00  F0AA         	lfsr	0,__pdataBANK0
   361  0011A6  EE10 F029          	lfsr	1,41
   362  0011AA                     copy_data0:
   363  0011AA  0009               	tblrd		*+
   364  0011AC  006F FFD7 FFEE     	movff	tablat,postinc0
   365  0011B2  50E5               	movf	postdec1,w,c
   366  0011B4  50E1               	movf	fsr1l,w,c
   367  0011B6  E1F9               	bnz	copy_data0
   368                           
   369                           ; Initialize objects allocated to COMRAM (26 bytes)
   370                           ; load TBLPTR registers with __pidataCOMRAM
   371  0011B8  0EAA               	movlw	low __pidataCOMRAM
   372  0011BA  6EF6               	movwf	tblptrl,c
   373  0011BC  0E16               	movlw	high __pidataCOMRAM
   374  0011BE  6EF7               	movwf	tblptrh,c
   375  0011C0  0E00               	movlw	low (__pidataCOMRAM shr (0+16))
   376  0011C2  6EF8               	movwf	tblptru,c
   377  0011C4  EE00  F02F         	lfsr	0,__pdataCOMRAM
   378  0011C8  EE10 F01A          	lfsr	1,26
   379  0011CC                     copy_data1:
   380  0011CC  0009               	tblrd		*+
   381  0011CE  006F FFD7 FFEE     	movff	tablat,postinc0
   382  0011D4  50E5               	movf	postdec1,w,c
   383  0011D6  50E1               	movf	fsr1l,w,c
   384  0011D8  E1F9               	bnz	copy_data1
   385                           
   386                           ; Clear objects allocated to BANK1 (60 bytes)
   387  0011DA  EE00  F100         	lfsr	0,__pbssBANK1
   388  0011DE  0E3C               	movlw	60
   389  0011E0                     clear_0:
   390  0011E0  6AEE               	clrf	postinc0,c
   391  0011E2  06E8               	decf	wreg,f,c
   392  0011E4  E1FD               	bnz	clear_0
   393                           
   394                           ; Clear objects allocated to BANK0 (74 bytes)
   395  0011E6  EE00  F060         	lfsr	0,__pbssBANK0
   396  0011EA  0E4A               	movlw	74
   397  0011EC                     clear_1:
   398  0011EC  6AEE               	clrf	postinc0,c
   399  0011EE  06E8               	decf	wreg,f,c
   400  0011F0  E1FD               	bnz	clear_1
   401                           
   402                           ; Clear objects allocated to COMRAM (46 bytes)
   403  0011F2  EE00  F001         	lfsr	0,__pbssCOMRAM
   404  0011F6  0E2E               	movlw	46
   405  0011F8                     clear_2:
   406  0011F8  6AEE               	clrf	postinc0,c
   407  0011FA  06E8               	decf	wreg,f,c
   408  0011FC  E1FD               	bnz	clear_2
   409                           
   410                           ;
   411                           ; Setup IVTBASE
   412                           ;
   413  0011FE  0E08               	movlw	(ivt0x8_base shr 0)& (0+255)
   414  001200  6ED5               	movwf	213,c
   415  001202  0E00               	movlw	(ivt0x8_base shr (0+8))& (0+255)
   416  001204  6ED6               	movwf	214,c
   417  001206  0E00               	movlw	(ivt0x8_base shr (0+16))& (0+255)
   418  001208  6ED7               	movwf	215,c
   419  00120A                     end_of_initialization:
   420                           	callstack 0
   421  00120A                     __end_of__initialization:
   422                           	callstack 0
   423  00120A  0E00               	movlw	low (__Lmediumconst shr (0+16))
   424  00120C  6EF8               	movwf	tblptru,c
   425  00120E  0100               	movlb	0
   426  001210  EFAE  F007         	goto	_main	;jump to C main() function
   427                           
   428                           	psect	bssCOMRAM
   429  000001                     __pbssCOMRAM:
   430                           	callstack 0
   431  000001                     _tmplowm@joysticks$F2175:
   432                           	callstack 0
   433  000001                     	ds	2
   434  000003                     _tmphighm@joysticks$F2174:
   435                           	callstack 0
   436  000003                     	ds	2
   437  000005                     _tmpcenter@joysticks$F2173:
   438                           	callstack 0
   439  000005                     	ds	2
   440  000007                     _tmplow@joysticks$F2172:
   441                           	callstack 0
   442  000007                     	ds	2
   443  000009                     _tmphigh@joysticks$F2171:
   444                           	callstack 0
   445  000009                     	ds	2
   446  00000B                     _adc_read:
   447                           	callstack 0
   448  00000B                     	ds	2
   449  00000D                     	ds	1
   450  00000E                     	ds	1
   451  00000F                     	ds	1
   452  000010                     	ds	1
   453  000011                     	ds	1
   454  000012                     	ds	1
   455  000013                     _clearRead@joysticks$F2178:
   456                           	callstack 0
   457  000013                     	ds	1
   458  000014                     _initiatedRead@joysticks$F2177:
   459                           	callstack 0
   460  000014                     	ds	1
   461  000015                     _stickIdx@joysticks$F2176:
   462                           	callstack 0
   463  000015                     	ds	1
   464  000016                     	ds	1
   465  000017                     	ds	1
   466  000018                     	ds	1
   467  000019                     _stickcalibration:
   468                           	callstack 0
   469  000019                     	ds	1
   470  00001A                     	ds	1
   471  00001B                     	ds	1
   472  00001C                     	ds	1
   473  00001D                     _testpulse:
   474                           	callstack 0
   475  00001D                     	ds	1
   476  00001E                     	ds	1
   477  00001F                     	ds	1
   478  000020                     	ds	1
   479  000021                     _testcount:
   480                           	callstack 0
   481  000021                     	ds	1
   482  000022                     	ds	1
   483  000023                     	ds	1
   484  000024                     	ds	1
   485  000025                     	ds	1
   486  000026                     	ds	1
   487  000027                     	ds	1
   488  000028                     _gInPacketIdx:
   489                           	callstack 0
   490  000028                     	ds	1
   491  000029                     _gInCommandByte:
   492                           	callstack 0
   493  000029                     	ds	1
   494  00002A                     _gInPulseWidth:
   495                           	callstack 0
   496  00002A                     	ds	1
   497  00002B                     _gInBitBufferIdx:
   498                           	callstack 0
   499  00002B                     	ds	1
   500  00002C                     _gConOutIdx:
   501                           	callstack 0
   502  00002C                     	ds	1
   503  00002D                     _gConByteCount:
   504                           	callstack 0
   505  00002D                     	ds	1
   506  00002E                     _gConOutByte:
   507                           	callstack 0
   508  00002E                     	ds	1
   509                           
   510                           	psect	dataCOMRAM
   511  00002F                     __pdataCOMRAM:
   512                           	callstack 0
   513  00002F                     _gConPollPacket:
   514                           	callstack 0
   515  00002F                     	ds	8
   516  000037                     _sy_high:
   517                           	callstack 0
   518  000037                     	ds	2
   519  000039                     _sy_center:
   520                           	callstack 0
   521  000039                     	ds	2
   522  00003B                     _sy_low:
   523                           	callstack 0
   524  00003B                     	ds	2
   525  00003D                     _sx_high:
   526                           	callstack 0
   527  00003D                     	ds	2
   528  00003F                     _sx_center:
   529                           	callstack 0
   530  00003F                     	ds	2
   531  000041                     _sx_low:
   532                           	callstack 0
   533  000041                     	ds	2
   534  000043                     _gCommandPollMask:
   535                           	callstack 0
   536  000043                     	ds	1
   537  000044                     _gCommandOriginMask:
   538                           	callstack 0
   539  000044                     	ds	1
   540  000045                     _gLowThreshold:
   541                           	callstack 0
   542  000045                     	ds	1
   543  000046                     _gInStatus:
   544                           	callstack 0
   545  000046                     	ds	1
   546  000047                     _gInBitCounter:
   547                           	callstack 0
   548  000047                     	ds	1
   549  000048                     _gConBitCounter:
   550                           	callstack 0
   551  000048                     	ds	1
   552                           
   553                           	psect	bssBANK0
   554  000060                     __pbssBANK0:
   555                           	callstack 0
   556  000060                     _gInPacket:
   557                           	callstack 0
   558  000060                     	ds	4
   559  000064                     	ds	2
   560  000066                     	ds	2
   561  000068                     	ds	2
   562  00006A                     	ds	2
   563  00006C                     	ds	2
   564  00006E                     	ds	2
   565  000070                     	ds	2
   566  000072                     	ds	2
   567  000074                     	ds	2
   568  000076                     	ds	2
   569  000078                     	ds	2
   570  00007A                     	ds	2
   571  00007C                     	ds	2
   572  00007E                     	ds	2
   573  000080                     	ds	2
   574  000082                     	ds	2
   575  000084                     	ds	2
   576  000086                     	ds	2
   577  000088                     	ds	2
   578  00008A                     	ds	2
   579  00008C                     	ds	2
   580  00008E                     	ds	2
   581  000090                     	ds	2
   582  000092                     	ds	2
   583  000094                     	ds	2
   584  000096                     	ds	2
   585  000098                     	ds	2
   586  00009A                     	ds	2
   587  00009C                     	ds	2
   588  00009E                     	ds	2
   589  0000A0                     	ds	2
   590  0000A2                     	ds	2
   591  0000A4                     	ds	2
   592  0000A6                     	ds	2
   593  0000A8                     	ds	2
   594                           
   595                           	psect	dataBANK0
   596  0000AA                     __pdataBANK0:
   597                           	callstack 0
   598  0000AA                     _gConOriginResponse:
   599                           	callstack 0
   600  0000AA                     	ds	10
   601  0000B4                     _gConProbeResponse:
   602                           	callstack 0
   603  0000B4                     	ds	3
   604  0000B7                     _cy_lowMultiplier:
   605                           	callstack 0
   606  0000B7                     	ds	2
   607  0000B9                     _cy_highMultiplier:
   608                           	callstack 0
   609  0000B9                     	ds	2
   610  0000BB                     _cx_lowMultiplier:
   611                           	callstack 0
   612  0000BB                     	ds	2
   613  0000BD                     _cx_highMultiplier:
   614                           	callstack 0
   615  0000BD                     	ds	2
   616  0000BF                     _sy_lowMultiplier:
   617                           	callstack 0
   618  0000BF                     	ds	2
   619  0000C1                     _sy_highMultiplier:
   620                           	callstack 0
   621  0000C1                     	ds	2
   622  0000C3                     _sx_lowMultiplier:
   623                           	callstack 0
   624  0000C3                     	ds	2
   625  0000C5                     _sx_highMultiplier:
   626                           	callstack 0
   627  0000C5                     	ds	2
   628  0000C7                     _cy_high:
   629                           	callstack 0
   630  0000C7                     	ds	2
   631  0000C9                     _cy_center:
   632                           	callstack 0
   633  0000C9                     	ds	2
   634  0000CB                     _cy_low:
   635                           	callstack 0
   636  0000CB                     	ds	2
   637  0000CD                     _cx_high:
   638                           	callstack 0
   639  0000CD                     	ds	2
   640  0000CF                     _cx_center:
   641                           	callstack 0
   642  0000CF                     	ds	2
   643  0000D1                     _cx_low:
   644                           	callstack 0
   645  0000D1                     	ds	2
   646                           
   647                           	psect	bssBANK1
   648  000100                     __pbssBANK1:
   649                           	callstack 0
   650  000100                     _gInBitBuffer:
   651                           	callstack 0
   652  000100                     	ds	60
   653                           
   654                           	psect	cstackBANK0
   655  0000D3                     __pcstackBANK0:
   656                           	callstack 0
   657  0000D3                     ??_scansticks:
   658  0000D3                     getmultiplier@distance:
   659                           	callstack 0
   660  0000D3                     _checkbuttons$2330:
   661                           	callstack 0
   662                           
   663                           ; 2 bytes @ 0x0
   664  0000D3                     	ds	2
   665  0000D5                     getmultiplier@ratio:
   666                           	callstack 0
   667  0000D5                     _checkbuttons$2331:
   668                           	callstack 0
   669                           
   670                           ; 2 bytes @ 0x2
   671  0000D5                     	ds	2
   672  0000D7                     _checkbuttons$2332:
   673                           	callstack 0
   674  0000D7                     _getmultiplier$3298:
   675                           	callstack 0
   676                           
   677                           ; 2 bytes @ 0x4
   678  0000D7                     	ds	2
   679  0000D9                     _checkbuttons$2333:
   680                           	callstack 0
   681                           
   682                           ; 2 bytes @ 0x6
   683  0000D9                     	ds	2
   684  0000DB                     _checkbuttons$2334:
   685                           	callstack 0
   686                           
   687                           ; 2 bytes @ 0x8
   688  0000DB                     	ds	2
   689  0000DD                     _checkbuttons$2335:
   690                           	callstack 0
   691                           
   692                           ; 2 bytes @ 0xA
   693  0000DD                     	ds	2
   694  0000DF                     _checkbuttons$2336:
   695                           	callstack 0
   696                           
   697                           ; 2 bytes @ 0xC
   698  0000DF                     	ds	2
   699  0000E1                     _checkbuttons$2337:
   700                           	callstack 0
   701                           
   702                           ; 2 bytes @ 0xE
   703  0000E1                     	ds	2
   704                           
   705                           	psect	cstackCOMRAM
   706  000049                     __pcstackCOMRAM:
   707                           	callstack 0
   708  000049                     ??_INTERRUPT_InterruptManagerHigh:
   709  000049                     
   710                           ; 1 bytes @ 0x0
   711  000049                     	ds	4
   712  00004D                     ??_calibratesticks:
   713  00004D                     ??_desyncfix:
   714  00004D                     ??_checkbuttons:
   715  00004D                     ?___wmul:
   716                           	callstack 0
   717  00004D                     ?___lwdiv:
   718                           	callstack 0
   719  00004D                     DATAEE_WriteByte@bData:
   720                           	callstack 0
   721  00004D                     DATAEE_ReadByte@bAdd:
   722                           	callstack 0
   723  00004D                     IOCBF2_SetInterruptHandler@InterruptHandler:
   724                           	callstack 0
   725  00004D                     ___wmul@multiplier:
   726                           	callstack 0
   727  00004D                     ___lwdiv@dividend:
   728                           	callstack 0
   729  00004D                     memset@dest:
   730                           	callstack 0
   731                           
   732                           ; 2 bytes @ 0x4
   733  00004D                     	ds	1
   734  00004E                     DATAEE_WriteByte@bAdd:
   735                           	callstack 0
   736                           
   737                           ; 1 bytes @ 0x5
   738  00004E                     	ds	1
   739  00004F                     DATAEE_WriteByte@GIEBitValue:
   740                           	callstack 0
   741  00004F                     ___wmul@multiplicand:
   742                           	callstack 0
   743  00004F                     ___lwdiv@divisor:
   744                           	callstack 0
   745  00004F                     memset@c:
   746                           	callstack 0
   747                           
   748                           ; 2 bytes @ 0x6
   749  00004F                     	ds	1
   750  000050                     savesettings@writing:
   751                           	callstack 0
   752                           
   753                           ; 2 bytes @ 0x7
   754  000050                     	ds	1
   755  000051                     ___lwdiv@counter:
   756                           	callstack 0
   757  000051                     ___wmul@product:
   758                           	callstack 0
   759  000051                     memset@n:
   760                           	callstack 0
   761                           
   762                           ; 2 bytes @ 0x8
   763  000051                     	ds	1
   764  000052                     savesettings@i:
   765                           	callstack 0
   766  000052                     ___lwdiv@quotient:
   767                           	callstack 0
   768                           
   769                           ; 2 bytes @ 0x9
   770  000052                     	ds	1
   771  000053                     ??_memset:
   772  000053                     slinjim@dividend:
   773                           	callstack 0
   774                           
   775                           ; 2 bytes @ 0xA
   776  000053                     	ds	1
   777  000054                     ?_getmultiplier:
   778                           	callstack 0
   779  000054                     getmultiplier@high:
   780                           	callstack 0
   781                           
   782                           ; 2 bytes @ 0xB
   783  000054                     	ds	1
   784  000055                     slinjim@multiplier:
   785                           	callstack 0
   786  000055                     memset@k:
   787                           	callstack 0
   788                           
   789                           ; 2 bytes @ 0xC
   790  000055                     	ds	1
   791  000056                     getmultiplier@low:
   792                           	callstack 0
   793                           
   794                           ; 2 bytes @ 0xD
   795  000056                     	ds	1
   796  000057                     slinjim@conversion:
   797                           	callstack 0
   798  000057                     memset@s:
   799                           	callstack 0
   800                           
   801                           ; 2 bytes @ 0xE
   802  000057                     	ds	1
   803  000058                     
   804                           ; 1 bytes @ 0xF
   805  000058                     	ds	1
   806  000059                     loadsettings@loading:
   807                           	callstack 0
   808                           
   809                           ; 2 bytes @ 0x10
   810  000059                     	ds	2
   811  00005B                     loadsettings@i:
   812                           	callstack 0
   813                           
   814                           ; 1 bytes @ 0x12
   815  00005B                     	ds	1
   816  00005C                     
   817                           ; 1 bytes @ 0x13
   818 ;;
   819 ;;Main: autosize = 0, tempsize = 0, incstack = 0, save=0
   820 ;;
   821 ;; *************** function _main *****************
   822 ;; Defined at:
   823 ;;		line 11 in file "main.c"
   824 ;; Parameters:    Size  Location     Type
   825 ;;		None
   826 ;; Auto vars:     Size  Location     Type
   827 ;;		None
   828 ;; Return value:  Size  Location     Type
   829 ;;                  1    wreg      void 
   830 ;; Registers used:
   831 ;;		wreg, fsr0l, fsr0h, fsr1l, fsr1h, fsr1l, fsr1h, fsr2l, fsr2h, status,2, status,0, pclath, btemp, btemp+1, btemp+2, b
      +temp+3, btemp+4, btemp+5, btemp+6, btemp+7, btemp+8, btemp+9, btemp+10, btemp+11, btemp+12, btemp+13, btemp+14, btemp+15
      +, btemp+16, btemp+17, btemp+18, btemp+19, btemp+20, btemp+21, btemp+22, btemp+23, btemp+24, btemp+25, btemp+26, btemp+27
      +, btemp+28, btemp+29, btemp+30, btemp+31, tosl, structret, tblptrl, tblptrh, tblptru, prodl, prodh, bsr, cstack
   832 ;; Tracked objects:
   833 ;;		On entry : 0/0
   834 ;;		On exit  : 0/0
   835 ;;		Unchanged: 0/0
   836 ;; Data sizes:     COMRAM   BANK0   BANK1   BANK2   BANK3   BANK4   BANK5   BANK6   BANK7
   837 ;;      Params:         0       0       0       0       0       0       0       0       0
   838 ;;      Locals:         0       0       0       0       0       0       0       0       0
   839 ;;      Temps:          0       0       0       0       0       0       0       0       0
   840 ;;      Totals:         0       0       0       0       0       0       0       0       0
   841 ;;Total ram usage:        0 bytes
   842 ;; Hardware stack levels required when called: 5
   843 ;; This function calls:
   844 ;;		_SYSTEM_Initialize
   845 ;;		_bytecleanup
   846 ;;		_bytepush
   847 ;;		_calibratesticks
   848 ;;		_checkbuttons
   849 ;;		_commandreader
   850 ;;		_desyncfix
   851 ;;		_loadsettings
   852 ;;		_savesettings
   853 ;;		_scansticks
   854 ;;		_setstickmultipliers
   855 ;;		_zerosticks
   856 ;; This function is called by:
   857 ;;		Startup code after reset
   858 ;; This function uses a non-reentrant model
   859 ;;
   860                           
   861                           	psect	text0
   862  000F5C                     __ptext0:
   863                           	callstack 0
   864  000F5C                     _main:
   865                           	callstack 26
   866  000F5C                     
   867                           ;main.c: 14:     SYSTEM_Initialize();
   868  000F5C  EC36  F00B         	call	_SYSTEM_Initialize	;wreg free
   869  000F60                     
   870                           ;main.c: 17:     loadsettings();
   871  000F60  EC89  F008         	call	_loadsettings	;wreg free
   872  000F64                     
   873                           ;main.c: 20:     ADPCH = 0x00;
   874  000F64  0E00               	movlw	0
   875  000F66  013E               	movlb	62	; () banked
   876  000F68  6FF1               	movwf	241,b	;volatile
   877  000F6A                     
   878                           ; BSR set to: 62
   879                           ;main.c: 22:     ADCON0bits.ADON = 1;
   880  000F6A  8FF8               	bsf	248,7,b	;volatile
   881  000F6C                     
   882                           ; BSR set to: 62
   883                           ;main.c: 25:     if (!PORTAbits.RA6 && !PORTAbits.RA7 && !PORTAbits.RA4)
   884  000F6C  BCCA               	btfsc	202,6,c	;volatile
   885  000F6E  EFBB  F007         	goto	u3041
   886  000F72  EFBD  F007         	goto	u3040
   887  000F76                     u3041:
   888  000F76  EFE2  F007         	goto	l4295
   889  000F7A                     u3040:
   890  000F7A                     
   891                           ; BSR set to: 62
   892  000F7A  BECA               	btfsc	202,7,c	;volatile
   893  000F7C  EFC2  F007         	goto	u3051
   894  000F80  EFC4  F007         	goto	u3050
   895  000F84                     u3051:
   896  000F84  EFE2  F007         	goto	l4295
   897  000F88                     u3050:
   898  000F88                     
   899                           ; BSR set to: 62
   900  000F88  B8CA               	btfsc	202,4,c	;volatile
   901  000F8A  EFC9  F007         	goto	u3061
   902  000F8E  EFCB  F007         	goto	u3060
   903  000F92                     u3061:
   904  000F92  EFE2  F007         	goto	l4295
   905  000F96                     u3060:
   906  000F96                     
   907                           ; BSR set to: 62
   908                           ;main.c: 26:     {;main.c: 27:         stickcalibration = 1;
   909  000F96  0E01               	movlw	1
   910  000F98  6E19               	movwf	_stickcalibration^0,c
   911  000F9A                     
   912                           ; BSR set to: 62
   913                           ;main.c: 29:         zerosticks();
   914  000F9A  EC5E  F00A         	call	_zerosticks	;wreg free
   915  000F9E  EFE2  F007         	goto	l4295
   916  000FA2                     l4285:
   917                           
   918                           ;main.c: 33:     {;main.c: 34:         calibratesticks();
   919  000FA2  ECE5  F003         	call	_calibratesticks	;wreg free
   920  000FA6                     
   921                           ;main.c: 37:         if (!PORTCbits.RC1)
   922  000FA6  B2CC               	btfsc	204,1,c	;volatile
   923  000FA8  EFD8  F007         	goto	u3071
   924  000FAC  EFDA  F007         	goto	u3070
   925  000FB0                     u3071:
   926  000FB0  EFE2  F007         	goto	l4295
   927  000FB4                     u3070:
   928  000FB4                     
   929                           ;main.c: 38:         {;main.c: 39:             setstickmultipliers();
   930  000FB4  EC0D  F007         	call	_setstickmultipliers	;wreg free
   931  000FB8                     
   932                           ;main.c: 40:             savesettings();
   933  000FB8  EC9F  F00A         	call	_savesettings	;wreg free
   934  000FBC                     
   935                           ;main.c: 41:             stickcalibration = 0;
   936  000FBC  0E00               	movlw	0
   937  000FBE  6E19               	movwf	_stickcalibration^0,c
   938                           
   939                           ;main.c: 42:             break;
   940  000FC0  EFEA  F007         	goto	l1000
   941  000FC4                     l4295:
   942                           
   943                           ;main.c: 32:     while (stickcalibration)
   944  000FC4  5019               	movf	_stickcalibration^0,w,c
   945  000FC6  A4D8               	btfss	status,2,c
   946  000FC8  EFE8  F007         	goto	u3081
   947  000FCC  EFEA  F007         	goto	u3080
   948  000FD0                     u3081:
   949  000FD0  EFD1  F007         	goto	l4285
   950  000FD4                     u3080:
   951  000FD4                     l1000:
   952                           
   953                           ;main.c: 47:     INTCON0bits.GIEH = 1;
   954  000FD4  8ED2               	bsf	210,7,c	;volatile
   955  000FD6                     l4297:
   956                           
   957                           ;main.c: 50:     {;main.c: 52:         commandreader();
   958  000FD6  ECE5  F009         	call	_commandreader	;wreg free
   959  000FDA                     
   960                           ;main.c: 54:         if (gInStatus & 0x01)
   961  000FDA  A046               	btfss	_gInStatus^0,0,c	;volatile
   962  000FDC  EFF2  F007         	goto	u3091
   963  000FE0  EFF4  F007         	goto	u3090
   964  000FE4                     u3091:
   965  000FE4  EFF6  F007         	goto	l4303
   966  000FE8                     u3090:
   967  000FE8                     
   968                           ;main.c: 55:         {;main.c: 56:             desyncfix();
   969  000FE8  EC87  F00B         	call	_desyncfix	;wreg free
   970  000FEC                     l4303:
   971                           
   972                           ;main.c: 59:         bytepush();
   973  000FEC  EC2B  F005         	call	_bytepush	;wreg free
   974  000FF0                     
   975                           ;main.c: 61:         bytecleanup();
   976  000FF0  ECBA  F00A         	call	_bytecleanup	;wreg free
   977  000FF4                     
   978                           ;main.c: 65:         if (gInStatus & (1 << 3))
   979  000FF4  A646               	btfss	_gInStatus^0,3,c	;volatile
   980  000FF6  EFFF  F007         	goto	u3101
   981  000FFA  EF01  F008         	goto	u3100
   982  000FFE                     u3101:
   983  000FFE  EF20  F008         	goto	l4323
   984  001002                     u3100:
   985  001002                     
   986                           ;main.c: 66:         {;main.c: 68:             if(gInPacket[2] == 1)
   987  001002  0100               	movlb	0	; () banked
   988  001004  0562               	decf	(_gInPacket+2)& (0+255),w,b	;volatile
   989  001006  A4D8               	btfss	status,2,c
   990  001008  EF08  F008         	goto	u3111
   991  00100C  EF0A  F008         	goto	u3110
   992  001010                     u3111:
   993  001010  EF0F  F008         	goto	l4315
   994  001014                     u3110:
   995  001014                     
   996                           ; BSR set to: 0
   997                           ;main.c: 69:             {;main.c: 70:                 PORTBbits.RB4 = 1;
   998  001014  88CB               	bsf	203,4,c	;volatile
   999  001016                     
  1000                           ; BSR set to: 0
  1001                           ;main.c: 71:                 CCPR1H = 0xF0;
  1002  001016  0EF0               	movlw	240
  1003  001018  6E7D               	movwf	125,c	;volatile
  1004                           
  1005                           ;main.c: 72:             }
  1006  00101A  EF1E  F008         	goto	l4321
  1007  00101E                     l4315:
  1008                           
  1009                           ; BSR set to: 0
  1010  00101E  0E02               	movlw	2
  1011  001020  1962               	xorwf	(_gInPacket+2)& (0+255),w,b	;volatile
  1012  001022  A4D8               	btfss	status,2,c
  1013  001024  EF16  F008         	goto	u3121
  1014  001028  EF18  F008         	goto	u3120
  1015  00102C                     u3121:
  1016  00102C  EF1D  F008         	goto	l1006
  1017  001030                     u3120:
  1018  001030                     
  1019                           ; BSR set to: 0
  1020                           ;main.c: 74:             {;main.c: 75:                 PORTBbits.RB4 = 1;
  1021  001030  88CB               	bsf	203,4,c	;volatile
  1022  001032                     
  1023                           ; BSR set to: 0
  1024                           ;main.c: 76:                 CCPR1H = 0x60;
  1025  001032  0E60               	movlw	96
  1026  001034  6E7D               	movwf	125,c	;volatile
  1027                           
  1028                           ;main.c: 77:             }
  1029  001036  EF1E  F008         	goto	l4321
  1030  00103A                     l1006:
  1031                           
  1032                           ; BSR set to: 0
  1033                           ;main.c: 79:             {;main.c: 80:                 PORTBbits.RB4 = 0;
  1034  00103A  98CB               	bcf	203,4,c	;volatile
  1035  00103C                     l4321:
  1036                           
  1037                           ; BSR set to: 0
  1038                           ;main.c: 83:             scansticks();
  1039  00103C  EC3C  F002         	call	_scansticks	;wreg free
  1040  001040                     l4323:
  1041                           
  1042                           ;main.c: 86:         if (gInStatus & (1 << 2))
  1043  001040  A446               	btfss	_gInStatus^0,2,c	;volatile
  1044  001042  EF25  F008         	goto	u3131
  1045  001046  EF27  F008         	goto	u3130
  1046  00104A                     u3131:
  1047  00104A  EFEB  F007         	goto	l4297
  1048  00104E                     u3130:
  1049  00104E                     
  1050                           ;main.c: 87:         {;main.c: 88:             checkbuttons();
  1051  00104E  EC0F  F000         	call	_checkbuttons	;wreg free
  1052  001052  EFEB  F007         	goto	l4297
  1053  001056  EF0D  F000         	goto	start
  1054  00105A                     __end_of_main:
  1055                           	callstack 0
  1056                           
  1057 ;; *************** function _zerosticks *****************
  1058 ;; Defined at:
  1059 ;;		line 57 in file "settings.c"
  1060 ;; Parameters:    Size  Location     Type
  1061 ;;		None
  1062 ;; Auto vars:     Size  Location     Type
  1063 ;;		None
  1064 ;; Return value:  Size  Location     Type
  1065 ;;                  1    wreg      void 
  1066 ;; Registers used:
  1067 ;;		wreg, status,2
  1068 ;; Tracked objects:
  1069 ;;		On entry : 0/0
  1070 ;;		On exit  : 0/0
  1071 ;;		Unchanged: 0/0
  1072 ;; Data sizes:     COMRAM   BANK0   BANK1   BANK2   BANK3   BANK4   BANK5   BANK6   BANK7
  1073 ;;      Params:         0       0       0       0       0       0       0       0       0
  1074 ;;      Locals:         0       0       0       0       0       0       0       0       0
  1075 ;;      Temps:          0       0       0       0       0       0       0       0       0
  1076 ;;      Totals:         0       0       0       0       0       0       0       0       0
  1077 ;;Total ram usage:        0 bytes
  1078 ;; Hardware stack levels used: 1
  1079 ;; Hardware stack levels required when called: 2
  1080 ;; This function calls:
  1081 ;;		Nothing
  1082 ;; This function is called by:
  1083 ;;		_main
  1084 ;; This function uses a non-reentrant model
  1085 ;;
  1086                           
  1087                           	psect	text1
  1088  0014BC                     __ptext1:
  1089                           	callstack 0
  1090  0014BC                     _zerosticks:
  1091                           	callstack 28
  1092  0014BC                     
  1093                           ;settings.c: 59:     SettingData.sx_low = 250U;
  1094  0014BC  0E00               	movlw	0
  1095  0014BE  0107               	movlb	7	; () banked
  1096  0014C0  6FD7               	movwf	215,b
  1097  0014C2  0EFA               	movlw	250
  1098  0014C4  6FD6               	movwf	214,b
  1099                           
  1100                           ;settings.c: 60:     SettingData.sx_high = 250U;
  1101  0014C6  0E00               	movlw	0
  1102  0014C8  6FDB               	movwf	219,b
  1103  0014CA  0EFA               	movlw	250
  1104  0014CC  6FDA               	movwf	218,b
  1105                           
  1106                           ;settings.c: 62:     SettingData.sy_low = 250U;
  1107  0014CE  0E00               	movlw	0
  1108  0014D0  6FDD               	movwf	221,b
  1109  0014D2  0EFA               	movlw	250
  1110  0014D4  6FDC               	movwf	220,b
  1111                           
  1112                           ;settings.c: 63:     SettingData.sy_high = 250U;
  1113  0014D6  0E00               	movlw	0
  1114  0014D8  6FE1               	movwf	225,b
  1115  0014DA  0EFA               	movlw	250
  1116  0014DC  6FE0               	movwf	224,b
  1117                           
  1118                           ;settings.c: 65:     SettingData.cx_low = 250U;
  1119  0014DE  0E00               	movlw	0
  1120  0014E0  6FE3               	movwf	227,b
  1121  0014E2  0EFA               	movlw	250
  1122  0014E4  6FE2               	movwf	226,b
  1123                           
  1124                           ;settings.c: 66:     SettingData.cx_high = 250U;
  1125  0014E6  0E00               	movlw	0
  1126  0014E8  6FE7               	movwf	231,b
  1127  0014EA  0EFA               	movlw	250
  1128  0014EC  6FE6               	movwf	230,b
  1129                           
  1130                           ;settings.c: 68:     SettingData.cy_low = 250U;
  1131  0014EE  0E00               	movlw	0
  1132  0014F0  6FE9               	movwf	233,b
  1133  0014F2  0EFA               	movlw	250
  1134  0014F4  6FE8               	movwf	232,b
  1135                           
  1136                           ;settings.c: 69:     SettingData.cy_high = 250U;
  1137  0014F6  0E00               	movlw	0
  1138  0014F8  6FED               	movwf	237,b
  1139  0014FA  0EFA               	movlw	250
  1140  0014FC  6FEC               	movwf	236,b
  1141  0014FE                     
  1142                           ; BSR set to: 7
  1143  0014FE  0012               	return		;funcret
  1144  001500                     __end_of_zerosticks:
  1145                           	callstack 0
  1146                           
  1147 ;; *************** function _setstickmultipliers *****************
  1148 ;; Defined at:
  1149 ;;		line 72 in file "settings.c"
  1150 ;; Parameters:    Size  Location     Type
  1151 ;;		None
  1152 ;; Auto vars:     Size  Location     Type
  1153 ;;		None
  1154 ;; Return value:  Size  Location     Type
  1155 ;;                  1    wreg      void 
  1156 ;; Registers used:
  1157 ;;		wreg, status,2, status,0, cstack
  1158 ;; Tracked objects:
  1159 ;;		On entry : 0/0
  1160 ;;		On exit  : 0/0
  1161 ;;		Unchanged: 0/0
  1162 ;; Data sizes:     COMRAM   BANK0   BANK1   BANK2   BANK3   BANK4   BANK5   BANK6   BANK7
  1163 ;;      Params:         0       0       0       0       0       0       0       0       0
  1164 ;;      Locals:         0       0       0       0       0       0       0       0       0
  1165 ;;      Temps:          0       0       0       0       0       0       0       0       0
  1166 ;;      Totals:         0       0       0       0       0       0       0       0       0
  1167 ;;Total ram usage:        0 bytes
  1168 ;; Hardware stack levels used: 1
  1169 ;; Hardware stack levels required when called: 4
  1170 ;; This function calls:
  1171 ;;		_getmultiplier
  1172 ;; This function is called by:
  1173 ;;		_main
  1174 ;; This function uses a non-reentrant model
  1175 ;;
  1176                           
  1177                           	psect	text2
  1178  000E1A                     __ptext2:
  1179                           	callstack 0
  1180  000E1A                     _setstickmultipliers:
  1181                           	callstack 26
  1182  000E1A                     
  1183                           ;settings.c: 74:     SettingData.sx_highMultiplier = getmultiplier(SettingData.sx_high, 
      +                          SettingData.sx_center);
  1184  000E1A  0061 FF68  F054    	movff	2010,getmultiplier@high
  1185  000E20  0061 FF6C  F055    	movff	2011,getmultiplier@high+1
  1186  000E26  0061 FF60  F056    	movff	2008,getmultiplier@low
  1187  000E2C  0061 FF64  F057    	movff	2009,getmultiplier@low+1
  1188  000E32  EC10  F00A         	call	_getmultiplier	;wreg free
  1189  000E36  0060  F150  F7EE   	movff	?_getmultiplier,2030
  1190  000E3C  0060  F154  F7EF   	movff	?_getmultiplier+1,2031
  1191                           
  1192                           ;settings.c: 75:     SettingData.sx_lowMultiplier = getmultiplier(SettingData.sx_center,
      +                           SettingData.sx_low);
  1193  000E42  0061 FF60  F054    	movff	2008,getmultiplier@high
  1194  000E48  0061 FF64  F055    	movff	2009,getmultiplier@high+1
  1195  000E4E  0061 FF58  F056    	movff	2006,getmultiplier@low
  1196  000E54  0061 FF5C  F057    	movff	2007,getmultiplier@low+1
  1197  000E5A  EC10  F00A         	call	_getmultiplier	;wreg free
  1198  000E5E  0060  F150  F7F0   	movff	?_getmultiplier,2032
  1199  000E64  0060  F154  F7F1   	movff	?_getmultiplier+1,2033
  1200                           
  1201                           ;settings.c: 77:     SettingData.cx_highMultiplier = getmultiplier(SettingData.cx_high, 
      +                          SettingData.cx_center);
  1202  000E6A  0061 FF98  F054    	movff	2022,getmultiplier@high
  1203  000E70  0061 FF9C  F055    	movff	2023,getmultiplier@high+1
  1204  000E76  0061 FF90  F056    	movff	2020,getmultiplier@low
  1205  000E7C  0061 FF94  F057    	movff	2021,getmultiplier@low+1
  1206  000E82  EC10  F00A         	call	_getmultiplier	;wreg free
  1207  000E86  0060  F150  F7F6   	movff	?_getmultiplier,2038
  1208  000E8C  0060  F154  F7F7   	movff	?_getmultiplier+1,2039
  1209                           
  1210                           ;settings.c: 78:     SettingData.cx_lowMultiplier = getmultiplier(SettingData.cx_center,
      +                           SettingData.cx_low);
  1211  000E92  0061 FF90  F054    	movff	2020,getmultiplier@high
  1212  000E98  0061 FF94  F055    	movff	2021,getmultiplier@high+1
  1213  000E9E  0061 FF88  F056    	movff	2018,getmultiplier@low
  1214  000EA4  0061 FF8C  F057    	movff	2019,getmultiplier@low+1
  1215  000EAA  EC10  F00A         	call	_getmultiplier	;wreg free
  1216  000EAE  0060  F150  F7F8   	movff	?_getmultiplier,2040
  1217  000EB4  0060  F154  F7F9   	movff	?_getmultiplier+1,2041
  1218                           
  1219                           ;settings.c: 80:     SettingData.sy_highMultiplier = getmultiplier(SettingData.sy_high, 
      +                          SettingData.sy_center);
  1220  000EBA  0061 FF80  F054    	movff	2016,getmultiplier@high
  1221  000EC0  0061 FF84  F055    	movff	2017,getmultiplier@high+1
  1222  000EC6  0061 FF78  F056    	movff	2014,getmultiplier@low
  1223  000ECC  0061 FF7C  F057    	movff	2015,getmultiplier@low+1
  1224  000ED2  EC10  F00A         	call	_getmultiplier	;wreg free
  1225  000ED6  0060  F150  F7F2   	movff	?_getmultiplier,2034
  1226  000EDC  0060  F154  F7F3   	movff	?_getmultiplier+1,2035
  1227                           
  1228                           ;settings.c: 81:     SettingData.sy_lowMultiplier = getmultiplier(SettingData.sy_center,
      +                           SettingData.sy_low);
  1229  000EE2  0061 FF78  F054    	movff	2014,getmultiplier@high
  1230  000EE8  0061 FF7C  F055    	movff	2015,getmultiplier@high+1
  1231  000EEE  0061 FF70  F056    	movff	2012,getmultiplier@low
  1232  000EF4  0061 FF74  F057    	movff	2013,getmultiplier@low+1
  1233  000EFA  EC10  F00A         	call	_getmultiplier	;wreg free
  1234  000EFE  0060  F150  F7F4   	movff	?_getmultiplier,2036
  1235  000F04  0060  F154  F7F5   	movff	?_getmultiplier+1,2037
  1236                           
  1237                           ;settings.c: 83:     SettingData.cy_highMultiplier = getmultiplier(SettingData.cy_high, 
      +                          SettingData.cy_center);
  1238  000F0A  0061 FFB0  F054    	movff	2028,getmultiplier@high
  1239  000F10  0061 FFB4  F055    	movff	2029,getmultiplier@high+1
  1240  000F16  0061 FFA8  F056    	movff	2026,getmultiplier@low
  1241  000F1C  0061 FFAC  F057    	movff	2027,getmultiplier@low+1
  1242  000F22  EC10  F00A         	call	_getmultiplier	;wreg free
  1243  000F26  0060  F150  F7FA   	movff	?_getmultiplier,2042
  1244  000F2C  0060  F154  F7FB   	movff	?_getmultiplier+1,2043
  1245                           
  1246                           ;settings.c: 84:     SettingData.cy_lowMultiplier = getmultiplier(SettingData.cy_center,
      +                           SettingData.cy_low);
  1247  000F32  0061 FFA8  F054    	movff	2026,getmultiplier@high
  1248  000F38  0061 FFAC  F055    	movff	2027,getmultiplier@high+1
  1249  000F3E  0061 FFA0  F056    	movff	2024,getmultiplier@low
  1250  000F44  0061 FFA4  F057    	movff	2025,getmultiplier@low+1
  1251  000F4A  EC10  F00A         	call	_getmultiplier	;wreg free
  1252  000F4E  0060  F150  F7FC   	movff	?_getmultiplier,2044
  1253  000F54  0060  F154  F7FD   	movff	?_getmultiplier+1,2045
  1254  000F5A  0012               	return		;funcret
  1255  000F5C                     __end_of_setstickmultipliers:
  1256                           	callstack 0
  1257                           
  1258 ;; *************** function _getmultiplier *****************
  1259 ;; Defined at:
  1260 ;;		line 64 in file "joysticks.c"
  1261 ;; Parameters:    Size  Location     Type
  1262 ;;  high            2   11[COMRAM] unsigned short 
  1263 ;;  low             2   13[COMRAM] unsigned short 
  1264 ;; Auto vars:     Size  Location     Type
  1265 ;;  ratio           2    2[BANK0 ] unsigned short 
  1266 ;;  distance        2    0[BANK0 ] unsigned short 
  1267 ;; Return value:  Size  Location     Type
  1268 ;;                  2   11[COMRAM] unsigned short 
  1269 ;; Registers used:
  1270 ;;		wreg, status,2, status,0, cstack
  1271 ;; Tracked objects:
  1272 ;;		On entry : 0/0
  1273 ;;		On exit  : 0/0
  1274 ;;		Unchanged: 0/0
  1275 ;; Data sizes:     COMRAM   BANK0   BANK1   BANK2   BANK3   BANK4   BANK5   BANK6   BANK7
  1276 ;;      Params:         4       0       0       0       0       0       0       0       0
  1277 ;;      Locals:         0       6       0       0       0       0       0       0       0
  1278 ;;      Temps:          0       0       0       0       0       0       0       0       0
  1279 ;;      Totals:         4       6       0       0       0       0       0       0       0
  1280 ;;Total ram usage:       10 bytes
  1281 ;; Hardware stack levels used: 1
  1282 ;; Hardware stack levels required when called: 3
  1283 ;; This function calls:
  1284 ;;		___lwdiv
  1285 ;; This function is called by:
  1286 ;;		_setstickmultipliers
  1287 ;; This function uses a non-reentrant model
  1288 ;;
  1289                           
  1290                           	psect	text3
  1291  001420                     __ptext3:
  1292                           	callstack 0
  1293  001420                     _getmultiplier:
  1294                           	callstack 26
  1295  001420                     
  1296                           ;joysticks.c: 64: uint16_t getmultiplier(uint16_t high, uint16_t low);joysticks.c: 65: {
      +                          ;joysticks.c: 67:     uint16_t distance = high-low;
  1297  001420  5056               	movf	getmultiplier@low^0,w,c
  1298  001422  5C54               	subwf	getmultiplier@high^0,w,c
  1299  001424  0100               	movlb	0	; () banked
  1300  001426  6FD3               	movwf	getmultiplier@distance& (0+255),b
  1301  001428  5057               	movf	(getmultiplier@low+1)^0,w,c
  1302  00142A  5855               	subwfb	(getmultiplier@high+1)^0,w,c
  1303  00142C  6FD4               	movwf	(getmultiplier@distance+1)& (0+255),b
  1304  00142E                     
  1305                           ; BSR set to: 0
  1306                           ;joysticks.c: 68:     uint16_t ratio = ((10000U / distance) * 256U)/100U;
  1307  00142E  C0D3  F04F         	movff	getmultiplier@distance,___lwdiv@divisor
  1308  001432  C0D4  F050         	movff	getmultiplier@distance+1,___lwdiv@divisor+1
  1309  001436  0E27               	movlw	39
  1310  001438  6E4E               	movwf	(___lwdiv@dividend+1)^0,c
  1311  00143A  0E10               	movlw	16
  1312  00143C  6E4D               	movwf	___lwdiv@dividend^0,c
  1313  00143E  EC46  F009         	call	___lwdiv	;wreg free
  1314  001442  C04D  F04E         	movff	?___lwdiv,?___lwdiv+1
  1315  001446  6A4D               	clrf	?___lwdiv^0,c
  1316  001448  C04D  F0D7         	movff	?___lwdiv,_getmultiplier$3298
  1317  00144C  C04E  F0D8         	movff	?___lwdiv+1,_getmultiplier$3298+1
  1318  001450                     
  1319                           ;joysticks.c: 68:     uint16_t ratio = ((10000U / distance) * 256U)/100U;
  1320  001450  C0D7  F04D         	movff	_getmultiplier$3298,___lwdiv@dividend
  1321  001454  C0D8  F04E         	movff	_getmultiplier$3298+1,___lwdiv@dividend+1
  1322  001458  0E00               	movlw	0
  1323  00145A  6E50               	movwf	(___lwdiv@divisor+1)^0,c
  1324  00145C  0E64               	movlw	100
  1325  00145E  6E4F               	movwf	___lwdiv@divisor^0,c
  1326  001460  EC46  F009         	call	___lwdiv	;wreg free
  1327  001464  C04D  F0D5         	movff	?___lwdiv,getmultiplier@ratio
  1328  001468  C04E  F0D6         	movff	?___lwdiv+1,getmultiplier@ratio+1
  1329  00146C                     
  1330                           ;joysticks.c: 70:     return ratio;
  1331  00146C  C0D5  F054         	movff	getmultiplier@ratio,?_getmultiplier
  1332  001470  C0D6  F055         	movff	getmultiplier@ratio+1,?_getmultiplier+1
  1333  001474  0012               	return		;funcret
  1334  001476                     __end_of_getmultiplier:
  1335                           	callstack 0
  1336                           
  1337 ;; *************** function ___lwdiv *****************
  1338 ;; Defined at:
  1339 ;;		line 7 in file "C:\Program Files\Microchip\xc8\v2.32\pic\sources\c99\common\lwdiv.c"
  1340 ;; Parameters:    Size  Location     Type
  1341 ;;  dividend        2    4[COMRAM] unsigned int 
  1342 ;;  divisor         2    6[COMRAM] unsigned int 
  1343 ;; Auto vars:     Size  Location     Type
  1344 ;;  quotient        2    9[COMRAM] unsigned int 
  1345 ;;  counter         1    8[COMRAM] unsigned char 
  1346 ;; Return value:  Size  Location     Type
  1347 ;;                  2    4[COMRAM] unsigned int 
  1348 ;; Registers used:
  1349 ;;		wreg, status,2, status,0
  1350 ;; Tracked objects:
  1351 ;;		On entry : 0/0
  1352 ;;		On exit  : 0/0
  1353 ;;		Unchanged: 0/0
  1354 ;; Data sizes:     COMRAM   BANK0   BANK1   BANK2   BANK3   BANK4   BANK5   BANK6   BANK7
  1355 ;;      Params:         4       0       0       0       0       0       0       0       0
  1356 ;;      Locals:         3       0       0       0       0       0       0       0       0
  1357 ;;      Temps:          0       0       0       0       0       0       0       0       0
  1358 ;;      Totals:         7       0       0       0       0       0       0       0       0
  1359 ;;Total ram usage:        7 bytes
  1360 ;; Hardware stack levels used: 1
  1361 ;; Hardware stack levels required when called: 2
  1362 ;; This function calls:
  1363 ;;		Nothing
  1364 ;; This function is called by:
  1365 ;;		_getmultiplier
  1366 ;; This function uses a non-reentrant model
  1367 ;;
  1368                           
  1369                           	psect	text4
  1370  00128C                     __ptext4:
  1371                           	callstack 0
  1372  00128C                     ___lwdiv:
  1373                           	callstack 26
  1374  00128C  0E00               	movlw	0
  1375  00128E  6E53               	movwf	(___lwdiv@quotient+1)^0,c
  1376  001290  0E00               	movlw	0
  1377  001292  6E52               	movwf	___lwdiv@quotient^0,c
  1378  001294  504F               	movf	___lwdiv@divisor^0,w,c
  1379  001296  1050               	iorwf	(___lwdiv@divisor+1)^0,w,c
  1380  001298  B4D8               	btfsc	status,2,c
  1381  00129A  EF51  F009         	goto	u2311
  1382  00129E  EF53  F009         	goto	u2310
  1383  0012A2                     u2311:
  1384  0012A2  EF7B  F009         	goto	l2139
  1385  0012A6                     u2310:
  1386  0012A6  0E01               	movlw	1
  1387  0012A8  6E51               	movwf	___lwdiv@counter^0,c
  1388  0012AA  EF5B  F009         	goto	l4049
  1389  0012AE                     l4047:
  1390  0012AE  90D8               	bcf	status,0,c
  1391  0012B0  364F               	rlcf	___lwdiv@divisor^0,f,c
  1392  0012B2  3650               	rlcf	(___lwdiv@divisor+1)^0,f,c
  1393  0012B4  2A51               	incf	___lwdiv@counter^0,f,c
  1394  0012B6                     l4049:
  1395  0012B6  AE50               	btfss	(___lwdiv@divisor+1)^0,7,c
  1396  0012B8  EF60  F009         	goto	u2321
  1397  0012BC  EF62  F009         	goto	u2320
  1398  0012C0                     u2321:
  1399  0012C0  EF57  F009         	goto	l4047
  1400  0012C4                     u2320:
  1401  0012C4                     l4051:
  1402  0012C4  90D8               	bcf	status,0,c
  1403  0012C6  3652               	rlcf	___lwdiv@quotient^0,f,c
  1404  0012C8  3653               	rlcf	(___lwdiv@quotient+1)^0,f,c
  1405  0012CA  504F               	movf	___lwdiv@divisor^0,w,c
  1406  0012CC  5C4D               	subwf	___lwdiv@dividend^0,w,c
  1407  0012CE  5050               	movf	(___lwdiv@divisor+1)^0,w,c
  1408  0012D0  584E               	subwfb	(___lwdiv@dividend+1)^0,w,c
  1409  0012D2  A0D8               	btfss	status,0,c
  1410  0012D4  EF6E  F009         	goto	u2331
  1411  0012D8  EF70  F009         	goto	u2330
  1412  0012DC                     u2331:
  1413  0012DC  EF75  F009         	goto	l4059
  1414  0012E0                     u2330:
  1415  0012E0  504F               	movf	___lwdiv@divisor^0,w,c
  1416  0012E2  5E4D               	subwf	___lwdiv@dividend^0,f,c
  1417  0012E4  5050               	movf	(___lwdiv@divisor+1)^0,w,c
  1418  0012E6  5A4E               	subwfb	(___lwdiv@dividend+1)^0,f,c
  1419  0012E8  8052               	bsf	___lwdiv@quotient^0,0,c
  1420  0012EA                     l4059:
  1421  0012EA  90D8               	bcf	status,0,c
  1422  0012EC  3250               	rrcf	(___lwdiv@divisor+1)^0,f,c
  1423  0012EE  324F               	rrcf	___lwdiv@divisor^0,f,c
  1424  0012F0  2E51               	decfsz	___lwdiv@counter^0,f,c
  1425  0012F2  EF62  F009         	goto	l4051
  1426  0012F6                     l2139:
  1427  0012F6  C052  F04D         	movff	___lwdiv@quotient,?___lwdiv
  1428  0012FA  C053  F04E         	movff	___lwdiv@quotient+1,?___lwdiv+1
  1429  0012FE  0012               	return		;funcret
  1430  001300                     __end_of___lwdiv:
  1431                           	callstack 0
  1432                           
  1433 ;; *************** function _scansticks *****************
  1434 ;; Defined at:
  1435 ;;		line 75 in file "joysticks.c"
  1436 ;; Parameters:    Size  Location     Type
  1437 ;;		None
  1438 ;; Auto vars:     Size  Location     Type
  1439 ;;		None
  1440 ;; Return value:  Size  Location     Type
  1441 ;;                  1    wreg      void 
  1442 ;; Registers used:
  1443 ;;		wreg, fsr2l, fsr2h, status,2, status,0, prodl, prodh, cstack
  1444 ;; Tracked objects:
  1445 ;;		On entry : 0/0
  1446 ;;		On exit  : 0/0
  1447 ;;		Unchanged: 0/0
  1448 ;; Data sizes:     COMRAM   BANK0   BANK1   BANK2   BANK3   BANK4   BANK5   BANK6   BANK7
  1449 ;;      Params:         0       0       0       0       0       0       0       0       0
  1450 ;;      Locals:         0       0       0       0       0       0       0       0       0
  1451 ;;      Temps:          0       4       0       0       0       0       0       0       0
  1452 ;;      Totals:         0       4       0       0       0       0       0       0       0
  1453 ;;Total ram usage:        4 bytes
  1454 ;; Hardware stack levels used: 1
  1455 ;; Hardware stack levels required when called: 4
  1456 ;; This function calls:
  1457 ;;		_slinjim
  1458 ;; This function is called by:
  1459 ;;		_main
  1460 ;; This function uses a non-reentrant model
  1461 ;;
  1462                           
  1463                           	psect	text5
  1464  000478                     __ptext5:
  1465                           	callstack 0
  1466  000478                     _scansticks:
  1467                           	callstack 26
  1468  000478                     
  1469                           ;joysticks.c: 79:     if (!initiatedRead)
  1470  000478  5014               	movf	_initiatedRead@joysticks$F2177^0,w,c
  1471  00047A  A4D8               	btfss	status,2,c
  1472  00047C  EF42  F002         	goto	u2341
  1473  000480  EF44  F002         	goto	u2340
  1474  000484                     u2341:
  1475  000484  EF50  F002         	goto	l1319
  1476  000488                     u2340:
  1477  000488                     
  1478                           ;joysticks.c: 80:     {;joysticks.c: 81:         ADPCH = SX_A;
  1479  000488  0E02               	movlw	2
  1480  00048A  013E               	movlb	62	; () banked
  1481  00048C  6FF1               	movwf	241,b	;volatile
  1482  00048E                     
  1483                           ; BSR set to: 62
  1484                           ;joysticks.c: 82:         ADCON0bits.ADGO = 1;
  1485  00048E  81F8               	bsf	248,0,b	;volatile
  1486                           
  1487                           ;joysticks.c: 83:         stickIdx = 0;
  1488  000490  0E00               	movlw	0
  1489  000492  6E15               	movwf	_stickIdx@joysticks$F2176^0,c
  1490                           
  1491                           ;joysticks.c: 84:         clearRead = 0;
  1492  000494  0E00               	movlw	0
  1493  000496  6E13               	movwf	_clearRead@joysticks$F2178^0,c
  1494                           
  1495                           ;joysticks.c: 85:         initiatedRead = 1;
  1496  000498  0E01               	movlw	1
  1497  00049A  6E14               	movwf	_initiatedRead@joysticks$F2177^0,c
  1498                           
  1499                           ;joysticks.c: 86:     }
  1500  00049C  EFE4  F003         	goto	l1329
  1501  0004A0                     l1319:
  1502                           
  1503                           ;joysticks.c: 88:     {;joysticks.c: 91:         if (!ADCON0bits.ADGO)
  1504  0004A0  013E               	movlb	62	; () banked
  1505  0004A2  B1F8               	btfsc	248,0,b	;volatile
  1506  0004A4  EF56  F002         	goto	u2351
  1507  0004A8  EF58  F002         	goto	u2350
  1508  0004AC                     u2351:
  1509  0004AC  EFE4  F003         	goto	l1329
  1510  0004B0                     u2350:
  1511  0004B0                     
  1512                           ; BSR set to: 62
  1513                           ;joysticks.c: 92:         {;joysticks.c: 93:             if (clearRead)
  1514  0004B0  5013               	movf	_clearRead@joysticks$F2178^0,w,c
  1515  0004B2  B4D8               	btfsc	status,2,c
  1516  0004B4  EF5E  F002         	goto	u2361
  1517  0004B8  EF60  F002         	goto	u2360
  1518  0004BC                     u2361:
  1519  0004BC  EF9E  F002         	goto	l4105
  1520  0004C0                     u2360:
  1521  0004C0  EF79  F002         	goto	l4097
  1522  0004C4                     l4085:
  1523                           
  1524                           ; BSR set to: 0
  1525                           ;joysticks.c: 99:                         ADPCH = SY_A;
  1526  0004C4  0E03               	movlw	3
  1527  0004C6  013E               	movlb	62	; () banked
  1528  0004C8  6FF1               	movwf	241,b	;volatile
  1529                           
  1530                           ;joysticks.c: 100:                         break;
  1531  0004CA  EF97  F002         	goto	l4099
  1532  0004CE                     l4087:
  1533                           
  1534                           ; BSR set to: 0
  1535                           ;joysticks.c: 102:                         ADPCH = CX_A;
  1536  0004CE  0E00               	movlw	0
  1537  0004D0  013E               	movlb	62	; () banked
  1538  0004D2  6FF1               	movwf	241,b	;volatile
  1539                           
  1540                           ;joysticks.c: 103:                         break;
  1541  0004D4  EF97  F002         	goto	l4099
  1542  0004D8                     l4089:
  1543                           
  1544                           ; BSR set to: 0
  1545                           ;joysticks.c: 105:                         ADPCH = CY_A;
  1546  0004D8  0E01               	movlw	1
  1547  0004DA  013E               	movlb	62	; () banked
  1548  0004DC  6FF1               	movwf	241,b	;volatile
  1549                           
  1550                           ;joysticks.c: 106:                         break;
  1551  0004DE  EF97  F002         	goto	l4099
  1552  0004E2                     l1328:
  1553                           
  1554                           ; BSR set to: 0
  1555  0004E2  9646               	bcf	_gInStatus,3,c	;# 
  1556  0004E4  8446               	bsf	_gInStatus,2,c	;# 
  1557  0004E6                     
  1558                           ;joysticks.c: 110:                         initiatedRead = 0;
  1559  0004E6  0E00               	movlw	0
  1560  0004E8  6E14               	movwf	_initiatedRead@joysticks$F2177^0,c
  1561                           
  1562                           ;joysticks.c: 111:                         clearRead = 0;
  1563  0004EA  0E00               	movlw	0
  1564  0004EC  6E13               	movwf	_clearRead@joysticks$F2178^0,c
  1565  0004EE  EFE4  F003         	goto	l1329
  1566  0004F2                     l4097:
  1567                           
  1568                           ; BSR set to: 62
  1569  0004F2  5015               	movf	_stickIdx@joysticks$F2176^0,w,c
  1570  0004F4  0100               	movlb	0	; () banked
  1571  0004F6  6FD3               	movwf	??_scansticks& (0+255),b
  1572  0004F8  6BD4               	clrf	(??_scansticks+1)& (0+255),b
  1573                           
  1574                           ; Switch on 2 bytes has been partitioned into a top level switch of size 1, and 1 sub-sw
      +                          itches
  1575                           ; Switch size 1, requested type "simple"
  1576                           ; Number of cases is 1, Range of values is 0 to 0
  1577                           ; switch strategies available:
  1578                           ; Name         Instructions Cycles
  1579                           ; simple_byte            4     3 (average)
  1580                           ;	Chosen strategy is simple_byte
  1581  0004FA  51D4               	movf	(??_scansticks+1)& (0+255),w,b
  1582  0004FC  0A00               	xorlw	0	; case 0
  1583  0004FE  B4D8               	btfsc	status,2,c
  1584  000500  EF84  F002         	goto	l4447
  1585  000504  EF97  F002         	goto	l4099
  1586  000508                     l4447:
  1587                           
  1588                           ; BSR set to: 0
  1589                           ; Switch size 1, requested type "simple"
  1590                           ; Number of cases is 4, Range of values is 0 to 3
  1591                           ; switch strategies available:
  1592                           ; Name         Instructions Cycles
  1593                           ; simple_byte           13     7 (average)
  1594                           ;	Chosen strategy is simple_byte
  1595  000508  51D3               	movf	??_scansticks& (0+255),w,b
  1596  00050A  0A00               	xorlw	0	; case 0
  1597  00050C  B4D8               	btfsc	status,2,c
  1598  00050E  EF62  F002         	goto	l4085
  1599  000512  0A01               	xorlw	1	; case 1
  1600  000514  B4D8               	btfsc	status,2,c
  1601  000516  EF67  F002         	goto	l4087
  1602  00051A  0A03               	xorlw	3	; case 2
  1603  00051C  B4D8               	btfsc	status,2,c
  1604  00051E  EF6C  F002         	goto	l4089
  1605  000522  0A01               	xorlw	1	; case 3
  1606  000524  B4D8               	btfsc	status,2,c
  1607  000526  EF71  F002         	goto	l1328
  1608  00052A  EF97  F002         	goto	l4099
  1609  00052E                     l4099:
  1610                           
  1611                           ;joysticks.c: 123:                 stickIdx++;
  1612  00052E  2A15               	incf	_stickIdx@joysticks$F2176^0,f,c
  1613  000530                     
  1614                           ;joysticks.c: 124:                 clearRead = 0;
  1615  000530  0E00               	movlw	0
  1616  000532  6E13               	movwf	_clearRead@joysticks$F2178^0,c
  1617  000534                     
  1618                           ;joysticks.c: 125:                 ADCON0bits.ADGO = 1;
  1619  000534  013E               	movlb	62	; () banked
  1620  000536  81F8               	bsf	248,0,b	;volatile
  1621                           
  1622                           ;joysticks.c: 126:             }
  1623  000538  EFE4  F003         	goto	l1329
  1624  00053C                     l4105:
  1625                           
  1626                           ; BSR set to: 62
  1627                           ;joysticks.c: 128:             {;joysticks.c: 129:                 clearRead = 1;
  1628  00053C  0E01               	movlw	1
  1629  00053E  6E13               	movwf	_clearRead@joysticks$F2178^0,c
  1630                           
  1631                           ;joysticks.c: 132:                 ADPCH = channel_VSS;
  1632  000540  0E3B               	movlw	59
  1633  000542  6FF1               	movwf	241,b	;volatile
  1634  000544                     
  1635                           ; BSR set to: 62
  1636                           ;joysticks.c: 133:                 ADCON0bits.ADGO = 1;
  1637  000544  81F8               	bsf	248,0,b	;volatile
  1638  000546                     
  1639                           ; BSR set to: 62
  1640                           ;joysticks.c: 137:                 adc_read = ((adc_result_t)((ADRESH << 8) + ADRESL)) >
      +                          > 3;
  1641  000546  51EF               	movf	239,w,b	;volatile
  1642  000548  006F FBC0  F0D3    	movff	16112,??_scansticks	;volatile
  1643  00054E  0100               	movlb	0	; () banked
  1644  000550  6BD4               	clrf	(??_scansticks+1)& (0+255),b
  1645  000552  C0D3  F0D4         	movff	??_scansticks,??_scansticks+1
  1646  000556  6BD3               	clrf	??_scansticks& (0+255),b
  1647  000558  27D3               	addwf	??_scansticks& (0+255),f,b
  1648  00055A  0E00               	movlw	0
  1649  00055C  23D4               	addwfc	(??_scansticks+1)& (0+255),f,b
  1650  00055E  90D8               	bcf	status,0,c
  1651  000560  33D4               	rrcf	(??_scansticks+1)& (0+255),f,b
  1652  000562  33D3               	rrcf	??_scansticks& (0+255),f,b
  1653  000564  90D8               	bcf	status,0,c
  1654  000566  33D4               	rrcf	(??_scansticks+1)& (0+255),f,b
  1655  000568  33D3               	rrcf	??_scansticks& (0+255),f,b
  1656  00056A  90D8               	bcf	status,0,c
  1657  00056C  33D4               	rrcf	(??_scansticks+1)& (0+255),f,b
  1658  00056E  33D3               	rrcf	??_scansticks& (0+255),f,b
  1659  000570  C0D3  F00B         	movff	??_scansticks,_adc_read
  1660  000574  C0D4  F00C         	movff	??_scansticks+1,_adc_read+1
  1661                           
  1662                           ;joysticks.c: 141:                 switch (stickIdx)
  1663  000578  EF3E  F003         	goto	l4113
  1664  00057C                     l1332:
  1665                           
  1666                           ; BSR set to: 0
  1667                           ;joysticks.c: 145:                         tmphigh = SettingData.sx_high;
  1668  00057C  0061 FF68  F009    	movff	2010,_tmphigh@joysticks$F2171
  1669  000582  0061 FF6C  F00A    	movff	2011,_tmphigh@joysticks$F2171+1
  1670                           
  1671                           ;joysticks.c: 146:                         tmplow = SettingData.sx_low;
  1672  000588  0061 FF58  F007    	movff	2006,_tmplow@joysticks$F2172
  1673  00058E  0061 FF5C  F008    	movff	2007,_tmplow@joysticks$F2172+1
  1674                           
  1675                           ;joysticks.c: 147:                         tmpcenter = SettingData.sx_center;
  1676  000594  0061 FF60  F005    	movff	2008,_tmpcenter@joysticks$F2173
  1677  00059A  0061 FF64  F006    	movff	2009,_tmpcenter@joysticks$F2173+1
  1678                           
  1679                           ;joysticks.c: 148:                         tmphighm = SettingData.sx_highMultiplier;
  1680  0005A0  0061 FFB8  F003    	movff	2030,_tmphighm@joysticks$F2174
  1681  0005A6  0061 FFBC  F004    	movff	2031,_tmphighm@joysticks$F2174+1
  1682                           
  1683                           ;joysticks.c: 149:                         tmplowm = SettingData.sx_lowMultiplier;
  1684  0005AC  0061 FFC0  F001    	movff	2032,_tmplowm@joysticks$F2175
  1685  0005B2  0061 FFC4  F002    	movff	2033,_tmplowm@joysticks$F2175+1
  1686                           
  1687                           ;joysticks.c: 151:                         break;
  1688  0005B8  EF5B  F003         	goto	l4115
  1689  0005BC                     l1334:
  1690                           
  1691                           ; BSR set to: 0
  1692                           ;joysticks.c: 155:                         tmphigh = SettingData.sy_high;
  1693  0005BC  0061 FF80  F009    	movff	2016,_tmphigh@joysticks$F2171
  1694  0005C2  0061 FF84  F00A    	movff	2017,_tmphigh@joysticks$F2171+1
  1695                           
  1696                           ;joysticks.c: 156:                         tmplow = SettingData.sy_low;
  1697  0005C8  0061 FF70  F007    	movff	2012,_tmplow@joysticks$F2172
  1698  0005CE  0061 FF74  F008    	movff	2013,_tmplow@joysticks$F2172+1
  1699                           
  1700                           ;joysticks.c: 157:                         tmpcenter = SettingData.sy_center;
  1701  0005D4  0061 FF78  F005    	movff	2014,_tmpcenter@joysticks$F2173
  1702  0005DA  0061 FF7C  F006    	movff	2015,_tmpcenter@joysticks$F2173+1
  1703                           
  1704                           ;joysticks.c: 158:                         tmphighm = SettingData.sy_highMultiplier;
  1705  0005E0  0061 FFC8  F003    	movff	2034,_tmphighm@joysticks$F2174
  1706  0005E6  0061 FFCC  F004    	movff	2035,_tmphighm@joysticks$F2174+1
  1707                           
  1708                           ;joysticks.c: 159:                         tmplowm = SettingData.sy_lowMultiplier;
  1709  0005EC  0061 FFD0  F001    	movff	2036,_tmplowm@joysticks$F2175
  1710  0005F2  0061 FFD4  F002    	movff	2037,_tmplowm@joysticks$F2175+1
  1711                           
  1712                           ;joysticks.c: 161:                         break;
  1713  0005F8  EF5B  F003         	goto	l4115
  1714  0005FC                     l1335:
  1715                           
  1716                           ; BSR set to: 0
  1717                           ;joysticks.c: 165:                         tmphigh = SettingData.cx_high;
  1718  0005FC  0061 FF98  F009    	movff	2022,_tmphigh@joysticks$F2171
  1719  000602  0061 FF9C  F00A    	movff	2023,_tmphigh@joysticks$F2171+1
  1720                           
  1721                           ;joysticks.c: 166:                         tmplow = SettingData.cx_low;
  1722  000608  0061 FF88  F007    	movff	2018,_tmplow@joysticks$F2172
  1723  00060E  0061 FF8C  F008    	movff	2019,_tmplow@joysticks$F2172+1
  1724                           
  1725                           ;joysticks.c: 167:                         tmpcenter = SettingData.cx_center;
  1726  000614  0061 FF90  F005    	movff	2020,_tmpcenter@joysticks$F2173
  1727  00061A  0061 FF94  F006    	movff	2021,_tmpcenter@joysticks$F2173+1
  1728                           
  1729                           ;joysticks.c: 168:                         tmphighm = SettingData.cx_highMultiplier;
  1730  000620  0061 FFD8  F003    	movff	2038,_tmphighm@joysticks$F2174
  1731  000626  0061 FFDC  F004    	movff	2039,_tmphighm@joysticks$F2174+1
  1732                           
  1733                           ;joysticks.c: 169:                         tmplowm = SettingData.cx_lowMultiplier;
  1734  00062C  0061 FFE0  F001    	movff	2040,_tmplowm@joysticks$F2175
  1735  000632  0061 FFE4  F002    	movff	2041,_tmplowm@joysticks$F2175+1
  1736                           
  1737                           ;joysticks.c: 171:                         break;
  1738  000638  EF5B  F003         	goto	l4115
  1739  00063C                     l1336:
  1740                           
  1741                           ; BSR set to: 0
  1742                           ;joysticks.c: 175:                         tmphigh = SettingData.cy_high;
  1743  00063C  0061 FFB0  F009    	movff	2028,_tmphigh@joysticks$F2171
  1744  000642  0061 FFB4  F00A    	movff	2029,_tmphigh@joysticks$F2171+1
  1745                           
  1746                           ;joysticks.c: 176:                         tmplow = SettingData.cy_low;
  1747  000648  0061 FFA0  F007    	movff	2024,_tmplow@joysticks$F2172
  1748  00064E  0061 FFA4  F008    	movff	2025,_tmplow@joysticks$F2172+1
  1749                           
  1750                           ;joysticks.c: 177:                         tmpcenter = SettingData.cy_center;
  1751  000654  0061 FFA8  F005    	movff	2026,_tmpcenter@joysticks$F2173
  1752  00065A  0061 FFAC  F006    	movff	2027,_tmpcenter@joysticks$F2173+1
  1753                           
  1754                           ;joysticks.c: 178:                         tmphighm = SettingData.cy_highMultiplier;
  1755  000660  0061 FFE8  F003    	movff	2042,_tmphighm@joysticks$F2174
  1756  000666  0061 FFEC  F004    	movff	2043,_tmphighm@joysticks$F2174+1
  1757                           
  1758                           ;joysticks.c: 179:                         tmplowm = SettingData.cy_lowMultiplier;
  1759  00066C  0061 FFF0  F001    	movff	2044,_tmplowm@joysticks$F2175
  1760  000672  0061 FFF4  F002    	movff	2045,_tmplowm@joysticks$F2175+1
  1761                           
  1762                           ;joysticks.c: 181:                         break;
  1763  000678  EF5B  F003         	goto	l4115
  1764  00067C                     l4113:
  1765                           
  1766                           ; BSR set to: 0
  1767  00067C  5015               	movf	_stickIdx@joysticks$F2176^0,w,c
  1768  00067E  6FD3               	movwf	??_scansticks& (0+255),b
  1769  000680  6BD4               	clrf	(??_scansticks+1)& (0+255),b
  1770                           
  1771                           ; Switch on 2 bytes has been partitioned into a top level switch of size 1, and 1 sub-sw
      +                          itches
  1772                           ; Switch size 1, requested type "simple"
  1773                           ; Number of cases is 1, Range of values is 0 to 0
  1774                           ; switch strategies available:
  1775                           ; Name         Instructions Cycles
  1776                           ; simple_byte            4     3 (average)
  1777                           ;	Chosen strategy is simple_byte
  1778  000682  51D4               	movf	(??_scansticks+1)& (0+255),w,b
  1779  000684  0A00               	xorlw	0	; case 0
  1780  000686  B4D8               	btfsc	status,2,c
  1781  000688  EF48  F003         	goto	l4449
  1782  00068C  EF5B  F003         	goto	l4115
  1783  000690                     l4449:
  1784                           
  1785                           ; BSR set to: 0
  1786                           ; Switch size 1, requested type "simple"
  1787                           ; Number of cases is 4, Range of values is 0 to 3
  1788                           ; switch strategies available:
  1789                           ; Name         Instructions Cycles
  1790                           ; simple_byte           13     7 (average)
  1791                           ;	Chosen strategy is simple_byte
  1792  000690  51D3               	movf	??_scansticks& (0+255),w,b
  1793  000692  0A00               	xorlw	0	; case 0
  1794  000694  B4D8               	btfsc	status,2,c
  1795  000696  EFBE  F002         	goto	l1332
  1796  00069A  0A01               	xorlw	1	; case 1
  1797  00069C  B4D8               	btfsc	status,2,c
  1798  00069E  EFDE  F002         	goto	l1334
  1799  0006A2  0A03               	xorlw	3	; case 2
  1800  0006A4  B4D8               	btfsc	status,2,c
  1801  0006A6  EFFE  F002         	goto	l1335
  1802  0006AA  0A01               	xorlw	1	; case 3
  1803  0006AC  B4D8               	btfsc	status,2,c
  1804  0006AE  EF1E  F003         	goto	l1336
  1805  0006B2  EF5B  F003         	goto	l4115
  1806  0006B6                     l4115:
  1807                           
  1808                           ; BSR set to: 0
  1809                           ;joysticks.c: 189:                 if (adc_read > tmpcenter+4)
  1810  0006B6  0E04               	movlw	4
  1811  0006B8  2405               	addwf	_tmpcenter@joysticks$F2173^0,w,c
  1812  0006BA  6FD3               	movwf	??_scansticks& (0+255),b
  1813  0006BC  0E00               	movlw	0
  1814  0006BE  2006               	addwfc	(_tmpcenter@joysticks$F2173+1)^0,w,c
  1815  0006C0  6FD4               	movwf	(??_scansticks+1)& (0+255),b
  1816  0006C2  500B               	movf	_adc_read^0,w,c
  1817  0006C4  5DD3               	subwf	??_scansticks& (0+255),w,b
  1818  0006C6  500C               	movf	(_adc_read+1)^0,w,c
  1819  0006C8  59D4               	subwfb	(??_scansticks+1)& (0+255),w,b
  1820  0006CA  B0D8               	btfsc	status,0,c
  1821  0006CC  EF6A  F003         	goto	u2371
  1822  0006D0  EF6C  F003         	goto	u2370
  1823  0006D4                     u2371:
  1824  0006D4  EF97  F003         	goto	l4123
  1825  0006D8                     u2370:
  1826  0006D8                     
  1827                           ; BSR set to: 0
  1828                           ;joysticks.c: 190:                 {;joysticks.c: 191:                     if (adc_read 
      +                          >= tmphigh)
  1829  0006D8  5009               	movf	_tmphigh@joysticks$F2171^0,w,c
  1830  0006DA  5C0B               	subwf	_adc_read^0,w,c
  1831  0006DC  500A               	movf	(_tmphigh@joysticks$F2171+1)^0,w,c
  1832  0006DE  580C               	subwfb	(_adc_read+1)^0,w,c
  1833  0006E0  A0D8               	btfss	status,0,c
  1834  0006E2  EF75  F003         	goto	u2381
  1835  0006E6  EF77  F003         	goto	u2380
  1836  0006EA                     u2381:
  1837  0006EA  EF81  F003         	goto	l4121
  1838  0006EE                     u2380:
  1839  0006EE                     
  1840                           ; BSR set to: 0
  1841                           ;joysticks.c: 192:                     {;joysticks.c: 193:                         gConP
      +                          ollPacket[stickIdx+2] = 228U;
  1842  0006EE  0E31               	movlw	low (_gConPollPacket+2)
  1843  0006F0  2415               	addwf	_stickIdx@joysticks$F2176^0,w,c
  1844  0006F2  6ED9               	movwf	fsr2l,c
  1845  0006F4  6ADA               	clrf	fsr2h,c
  1846  0006F6  0E00               	movlw	high (_gConPollPacket+2)
  1847  0006F8  22DA               	addwfc	fsr2h,f,c
  1848  0006FA  0EE4               	movlw	228
  1849  0006FC  6EDF               	movwf	indf2,c
  1850                           
  1851                           ;joysticks.c: 194:                     }
  1852  0006FE  EFE4  F003         	goto	l1329
  1853  000702                     l4121:
  1854                           
  1855                           ; BSR set to: 0
  1856                           ;joysticks.c: 196:                     {;joysticks.c: 197:                         gConP
      +                          ollPacket[stickIdx+2] = 128U + slinjim(adc_read - tmpcenter, tmphighm);
  1857  000702  0E31               	movlw	low (_gConPollPacket+2)
  1858  000704  2415               	addwf	_stickIdx@joysticks$F2176^0,w,c
  1859  000706  6ED9               	movwf	fsr2l,c
  1860  000708  6ADA               	clrf	fsr2h,c
  1861  00070A  0E00               	movlw	high (_gConPollPacket+2)
  1862  00070C  22DA               	addwfc	fsr2h,f,c
  1863  00070E  5005               	movf	_tmpcenter@joysticks$F2173^0,w,c
  1864  000710  5C0B               	subwf	_adc_read^0,w,c
  1865  000712  6E53               	movwf	slinjim@dividend^0,c
  1866  000714  5006               	movf	(_tmpcenter@joysticks$F2173+1)^0,w,c
  1867  000716  580C               	subwfb	(_adc_read+1)^0,w,c
  1868  000718  6E54               	movwf	(slinjim@dividend+1)^0,c
  1869  00071A  C003  F055         	movff	_tmphighm@joysticks$F2174,slinjim@multiplier
  1870  00071E  C004  F056         	movff	_tmphighm@joysticks$F2174+1,slinjim@multiplier+1
  1871  000722  EC11  F00B         	call	_slinjim	;wreg free
  1872  000726  0F80               	addlw	128
  1873  000728  6EDF               	movwf	indf2,c
  1874  00072A  EFE4  F003         	goto	l1329
  1875  00072E                     l4123:
  1876                           
  1877                           ; BSR set to: 0
  1878  00072E  0EFC               	movlw	252
  1879  000730  6FD3               	movwf	??_scansticks& (0+255),b
  1880  000732  0EFF               	movlw	255
  1881  000734  6FD4               	movwf	(??_scansticks+1)& (0+255),b
  1882  000736  C005  F0D5         	movff	_tmpcenter@joysticks$F2173,??_scansticks+2
  1883  00073A  C006  F0D6         	movff	_tmpcenter@joysticks$F2173+1,??_scansticks+3
  1884  00073E  51D3               	movf	??_scansticks& (0+255),w,b
  1885  000740  27D5               	addwf	(??_scansticks+2)& (0+255),f,b
  1886  000742  51D4               	movf	(??_scansticks+1)& (0+255),w,b
  1887  000744  23D6               	addwfc	(??_scansticks+3)& (0+255),f,b
  1888  000746  51D5               	movf	(??_scansticks+2)& (0+255),w,b
  1889  000748  5C0B               	subwf	_adc_read^0,w,c
  1890  00074A  51D6               	movf	(??_scansticks+3)& (0+255),w,b
  1891  00074C  580C               	subwfb	(_adc_read+1)^0,w,c
  1892  00074E  B0D8               	btfsc	status,0,c
  1893  000750  EFAC  F003         	goto	u2391
  1894  000754  EFAE  F003         	goto	u2390
  1895  000758                     u2391:
  1896  000758  EFDC  F003         	goto	l4131
  1897  00075C                     u2390:
  1898  00075C                     
  1899                           ; BSR set to: 0
  1900                           ;joysticks.c: 201:                 {;joysticks.c: 202:                     if (adc_read 
      +                          <= tmplow)
  1901  00075C  500B               	movf	_adc_read^0,w,c
  1902  00075E  5C07               	subwf	_tmplow@joysticks$F2172^0,w,c
  1903  000760  500C               	movf	(_adc_read+1)^0,w,c
  1904  000762  5808               	subwfb	(_tmplow@joysticks$F2172+1)^0,w,c
  1905  000764  A0D8               	btfss	status,0,c
  1906  000766  EFB7  F003         	goto	u2401
  1907  00076A  EFB9  F003         	goto	u2400
  1908  00076E                     u2401:
  1909  00076E  EFC3  F003         	goto	l4129
  1910  000772                     u2400:
  1911  000772                     
  1912                           ; BSR set to: 0
  1913                           ;joysticks.c: 203:                     {;joysticks.c: 204:                         gConP
      +                          ollPacket[stickIdx+2] = 28U;
  1914  000772  0E31               	movlw	low (_gConPollPacket+2)
  1915  000774  2415               	addwf	_stickIdx@joysticks$F2176^0,w,c
  1916  000776  6ED9               	movwf	fsr2l,c
  1917  000778  6ADA               	clrf	fsr2h,c
  1918  00077A  0E00               	movlw	high (_gConPollPacket+2)
  1919  00077C  22DA               	addwfc	fsr2h,f,c
  1920  00077E  0E1C               	movlw	28
  1921  000780  6EDF               	movwf	indf2,c
  1922                           
  1923                           ;joysticks.c: 205:                     }
  1924  000782  EFE4  F003         	goto	l1329
  1925  000786                     l4129:
  1926                           
  1927                           ; BSR set to: 0
  1928                           ;joysticks.c: 207:                     {;joysticks.c: 208:                         gConP
      +                          ollPacket[stickIdx+2] = 127U - slinjim(tmpcenter - adc_read, tmplowm);
  1929  000786  0E31               	movlw	low (_gConPollPacket+2)
  1930  000788  2415               	addwf	_stickIdx@joysticks$F2176^0,w,c
  1931  00078A  6ED9               	movwf	fsr2l,c
  1932  00078C  6ADA               	clrf	fsr2h,c
  1933  00078E  0E00               	movlw	high (_gConPollPacket+2)
  1934  000790  22DA               	addwfc	fsr2h,f,c
  1935  000792  500B               	movf	_adc_read^0,w,c
  1936  000794  5C05               	subwf	_tmpcenter@joysticks$F2173^0,w,c
  1937  000796  6E53               	movwf	slinjim@dividend^0,c
  1938  000798  500C               	movf	(_adc_read+1)^0,w,c
  1939  00079A  5806               	subwfb	(_tmpcenter@joysticks$F2173+1)^0,w,c
  1940  00079C  6E54               	movwf	(slinjim@dividend+1)^0,c
  1941  00079E  C001  F055         	movff	_tmplowm@joysticks$F2175,slinjim@multiplier
  1942  0007A2  C002  F056         	movff	_tmplowm@joysticks$F2175+1,slinjim@multiplier+1
  1943  0007A6  EC11  F00B         	call	_slinjim	;wreg free
  1944  0007AA  0100               	movlb	0	; () banked
  1945  0007AC  6FD3               	movwf	??_scansticks& (0+255),b
  1946  0007AE  51D3               	movf	??_scansticks& (0+255),w,b
  1947  0007B0  087F               	sublw	127
  1948  0007B2  6EDF               	movwf	indf2,c
  1949  0007B4  EFE4  F003         	goto	l1329
  1950  0007B8                     l4131:
  1951                           
  1952                           ; BSR set to: 0
  1953                           ;joysticks.c: 212:                 {;joysticks.c: 213:                     gConPollPacke
      +                          t[stickIdx+2] = 128U;
  1954  0007B8  0E31               	movlw	low (_gConPollPacket+2)
  1955  0007BA  2415               	addwf	_stickIdx@joysticks$F2176^0,w,c
  1956  0007BC  6ED9               	movwf	fsr2l,c
  1957  0007BE  6ADA               	clrf	fsr2h,c
  1958  0007C0  0E00               	movlw	high (_gConPollPacket+2)
  1959  0007C2  22DA               	addwfc	fsr2h,f,c
  1960  0007C4  0E80               	movlw	128
  1961  0007C6  6EDF               	movwf	indf2,c
  1962  0007C8                     l1329:
  1963  0007C8  0012               	return		;funcret
  1964  0007CA                     __end_of_scansticks:
  1965                           	callstack 0
  1966                           
  1967 ;; *************** function _slinjim *****************
  1968 ;; Defined at:
  1969 ;;		line 55 in file "joysticks.c"
  1970 ;; Parameters:    Size  Location     Type
  1971 ;;  dividend        2   10[COMRAM] unsigned short 
  1972 ;;  multiplier      2   12[COMRAM] unsigned short 
  1973 ;; Auto vars:     Size  Location     Type
  1974 ;;  conversion      2   14[COMRAM] unsigned short 
  1975 ;; Return value:  Size  Location     Type
  1976 ;;                  1    wreg      unsigned char 
  1977 ;; Registers used:
  1978 ;;		wreg, status,2, status,0, prodl, prodh, cstack
  1979 ;; Tracked objects:
  1980 ;;		On entry : 0/0
  1981 ;;		On exit  : 0/0
  1982 ;;		Unchanged: 0/0
  1983 ;; Data sizes:     COMRAM   BANK0   BANK1   BANK2   BANK3   BANK4   BANK5   BANK6   BANK7
  1984 ;;      Params:         4       0       0       0       0       0       0       0       0
  1985 ;;      Locals:         2       0       0       0       0       0       0       0       0
  1986 ;;      Temps:          0       0       0       0       0       0       0       0       0
  1987 ;;      Totals:         6       0       0       0       0       0       0       0       0
  1988 ;;Total ram usage:        6 bytes
  1989 ;; Hardware stack levels used: 1
  1990 ;; Hardware stack levels required when called: 3
  1991 ;; This function calls:
  1992 ;;		___wmul
  1993 ;; This function is called by:
  1994 ;;		_scansticks
  1995 ;; This function uses a non-reentrant model
  1996 ;;
  1997                           
  1998                           	psect	text6
  1999  001622                     __ptext6:
  2000                           	callstack 0
  2001  001622                     _slinjim:
  2002                           	callstack 26
  2003  001622                     
  2004                           ;joysticks.c: 55: unsigned char slinjim(uint16_t dividend, uint16_t multiplier);joystick
      +                          s.c: 56: {;joysticks.c: 57:     uint16_t conversion = (dividend * multiplier+1) >> 8;
  2005  001622  C053  F04D         	movff	slinjim@dividend,___wmul@multiplier
  2006  001626  C054  F04E         	movff	slinjim@dividend+1,___wmul@multiplier+1
  2007  00162A  C055  F04F         	movff	slinjim@multiplier,___wmul@multiplicand
  2008  00162E  C056  F050         	movff	slinjim@multiplier+1,___wmul@multiplicand+1
  2009  001632  ECE7  F00A         	call	___wmul	;wreg free
  2010  001636  0E01               	movlw	1
  2011  001638  264D               	addwf	?___wmul^0,f,c
  2012  00163A  0E00               	movlw	0
  2013  00163C  224E               	addwfc	(?___wmul+1)^0,f,c
  2014  00163E  504E               	movf	(?___wmul+1)^0,w,c
  2015  001640  6E57               	movwf	slinjim@conversion^0,c
  2016  001642  6A58               	clrf	(slinjim@conversion+1)^0,c
  2017  001644                     
  2018                           ;joysticks.c: 58:     return (unsigned char) conversion;
  2019  001644  5057               	movf	slinjim@conversion^0,w,c
  2020  001646  0012               	return		;funcret
  2021  001648                     __end_of_slinjim:
  2022                           	callstack 0
  2023                           
  2024 ;; *************** function ___wmul *****************
  2025 ;; Defined at:
  2026 ;;		line 15 in file "C:\Program Files\Microchip\xc8\v2.32\pic\sources\c99\common\Umul16.c"
  2027 ;; Parameters:    Size  Location     Type
  2028 ;;  multiplier      2    4[COMRAM] unsigned int 
  2029 ;;  multiplicand    2    6[COMRAM] unsigned int 
  2030 ;; Auto vars:     Size  Location     Type
  2031 ;;  product         2    8[COMRAM] unsigned int 
  2032 ;; Return value:  Size  Location     Type
  2033 ;;                  2    4[COMRAM] unsigned int 
  2034 ;; Registers used:
  2035 ;;		wreg, status,2, status,0, prodl, prodh
  2036 ;; Tracked objects:
  2037 ;;		On entry : 0/0
  2038 ;;		On exit  : 0/0
  2039 ;;		Unchanged: 0/0
  2040 ;; Data sizes:     COMRAM   BANK0   BANK1   BANK2   BANK3   BANK4   BANK5   BANK6   BANK7
  2041 ;;      Params:         4       0       0       0       0       0       0       0       0
  2042 ;;      Locals:         2       0       0       0       0       0       0       0       0
  2043 ;;      Temps:          0       0       0       0       0       0       0       0       0
  2044 ;;      Totals:         6       0       0       0       0       0       0       0       0
  2045 ;;Total ram usage:        6 bytes
  2046 ;; Hardware stack levels used: 1
  2047 ;; Hardware stack levels required when called: 2
  2048 ;; This function calls:
  2049 ;;		Nothing
  2050 ;; This function is called by:
  2051 ;;		_slinjim
  2052 ;; This function uses a non-reentrant model
  2053 ;;
  2054                           
  2055                           	psect	text7
  2056  0015CE                     __ptext7:
  2057                           	callstack 0
  2058  0015CE                     ___wmul:
  2059                           	callstack 26
  2060  0015CE  504D               	movf	___wmul@multiplier^0,w,c
  2061  0015D0  024F               	mulwf	___wmul@multiplicand^0,c
  2062  0015D2  006F FFCC  F051    	movff	prodl,___wmul@product
  2063  0015D8  006F FFD0  F052    	movff	prodh,___wmul@product+1
  2064  0015DE  504D               	movf	___wmul@multiplier^0,w,c
  2065  0015E0  0250               	mulwf	(___wmul@multiplicand+1)^0,c
  2066  0015E2  50F3               	movf	243,w,c
  2067  0015E4  2652               	addwf	(___wmul@product+1)^0,f,c
  2068  0015E6  504E               	movf	(___wmul@multiplier+1)^0,w,c
  2069  0015E8  024F               	mulwf	___wmul@multiplicand^0,c
  2070  0015EA  50F3               	movf	243,w,c
  2071  0015EC  2652               	addwf	(___wmul@product+1)^0,f,c
  2072  0015EE  C051  F04D         	movff	___wmul@product,?___wmul
  2073  0015F2  C052  F04E         	movff	___wmul@product+1,?___wmul+1
  2074  0015F6  0012               	return		;funcret
  2075  0015F8                     __end_of___wmul:
  2076                           	callstack 0
  2077                           
  2078 ;; *************** function _loadsettings *****************
  2079 ;; Defined at:
  2080 ;;		line 87 in file "settings.c"
  2081 ;; Parameters:    Size  Location     Type
  2082 ;;		None
  2083 ;; Auto vars:     Size  Location     Type
  2084 ;;  loading         2   16[COMRAM] PTR unsigned char 
  2085 ;;		 -> SettingData(45), 
  2086 ;;  i               1   18[COMRAM] unsigned char 
  2087 ;; Return value:  Size  Location     Type
  2088 ;;                  1    wreg      void 
  2089 ;; Registers used:
  2090 ;;		wreg, fsr2l, fsr2h, status,2, status,0, cstack
  2091 ;; Tracked objects:
  2092 ;;		On entry : 0/0
  2093 ;;		On exit  : 0/0
  2094 ;;		Unchanged: 0/0
  2095 ;; Data sizes:     COMRAM   BANK0   BANK1   BANK2   BANK3   BANK4   BANK5   BANK6   BANK7
  2096 ;;      Params:         0       0       0       0       0       0       0       0       0
  2097 ;;      Locals:         3       0       0       0       0       0       0       0       0
  2098 ;;      Temps:          0       0       0       0       0       0       0       0       0
  2099 ;;      Totals:         3       0       0       0       0       0       0       0       0
  2100 ;;Total ram usage:        3 bytes
  2101 ;; Hardware stack levels used: 1
  2102 ;; Hardware stack levels required when called: 4
  2103 ;; This function calls:
  2104 ;;		_DATAEE_ReadByte
  2105 ;;		_memset
  2106 ;;		_savesettings
  2107 ;;		_setdefaultsettings
  2108 ;; This function is called by:
  2109 ;;		_main
  2110 ;; This function uses a non-reentrant model
  2111 ;;
  2112                           
  2113                           	psect	text8
  2114  001112                     __ptext8:
  2115                           	callstack 0
  2116  001112                     _loadsettings:
  2117                           	callstack 26
  2118  001112                     
  2119                           ;settings.c: 90:     memset((void*)&SettingData, 0, sizeof(Settings));
  2120  001112  0ED3               	movlw	211
  2121  001114  6E4D               	movwf	memset@dest^0,c
  2122  001116  0E07               	movlw	7
  2123  001118  6E4E               	movwf	(memset@dest+1)^0,c
  2124  00111A  0E00               	movlw	0
  2125  00111C  6E50               	movwf	(memset@c+1)^0,c
  2126  00111E  0E00               	movlw	0
  2127  001120  6E4F               	movwf	memset@c^0,c
  2128  001122  0E00               	movlw	0
  2129  001124  6E52               	movwf	(memset@n+1)^0,c
  2130  001126  0E2D               	movlw	45
  2131  001128  6E51               	movwf	memset@n^0,c
  2132  00112A  EC45  F006         	call	_memset	;wreg free
  2133  00112E                     
  2134                           ;settings.c: 92:     uint8_t* loading = (uint8_t*)&SettingData;
  2135  00112E  0ED3               	movlw	211
  2136  001130  6E59               	movwf	loadsettings@loading^0,c
  2137  001132  0E07               	movlw	7
  2138  001134  6E5A               	movwf	(loadsettings@loading+1)^0,c
  2139  001136                     
  2140                           ;settings.c: 93:     uint8_t i;;settings.c: 95:     for (i = 0; i < sizeof(Settings); i+
      +                          +)
  2141  001136  0E00               	movlw	0
  2142  001138  6E5B               	movwf	loadsettings@i^0,c
  2143  00113A                     l1637:
  2144  00113A  0004               	clrwdt		;# 
  2145  00113C                     
  2146                           ;settings.c: 98:         loading[i] = DATAEE_ReadByte(i);
  2147  00113C  505B               	movf	loadsettings@i^0,w,c
  2148  00113E  2459               	addwf	loadsettings@loading^0,w,c
  2149  001140  6ED9               	movwf	fsr2l,c
  2150  001142  0E00               	movlw	0
  2151  001144  205A               	addwfc	(loadsettings@loading+1)^0,w,c
  2152  001146  6EDA               	movwf	fsr2h,c
  2153  001148  505B               	movf	loadsettings@i^0,w,c
  2154  00114A  EC62  F00B         	call	_DATAEE_ReadByte
  2155  00114E  6EDF               	movwf	indf2,c
  2156  001150                     
  2157                           ;settings.c: 101:         if (i == 2U && SettingData.configKey != 0x4E)
  2158  001150  0E02               	movlw	2
  2159  001152  185B               	xorwf	loadsettings@i^0,w,c
  2160  001154  A4D8               	btfss	status,2,c
  2161  001156  EFAF  F008         	goto	u1341
  2162  00115A  EFB1  F008         	goto	u1340
  2163  00115E                     u1341:
  2164  00115E  EFC1  F008         	goto	l3565
  2165  001162                     u1340:
  2166  001162  0E4E               	movlw	78
  2167  001164  0107               	movlb	7	; () banked
  2168  001166  19D5               	xorwf	213,w,b
  2169  001168  B4D8               	btfsc	status,2,c
  2170  00116A  EFB9  F008         	goto	u1351
  2171  00116E  EFBB  F008         	goto	u1350
  2172  001172                     u1351:
  2173  001172  EFC1  F008         	goto	l3565
  2174  001176                     u1350:
  2175  001176                     
  2176                           ; BSR set to: 7
  2177                           ;settings.c: 102:         {;settings.c: 104:             setdefaultsettings();
  2178  001176  EC2D  F008         	call	_setdefaultsettings	;wreg free
  2179  00117A                     
  2180                           ;settings.c: 105:             savesettings();
  2181  00117A  EC9F  F00A         	call	_savesettings	;wreg free
  2182  00117E  EFCA  F008         	goto	l1640
  2183  001182                     l3565:
  2184                           
  2185                           ;settings.c: 108:     }
  2186  001182  2A5B               	incf	loadsettings@i^0,f,c
  2187  001184  0E2C               	movlw	44
  2188  001186  645B               	cpfsgt	loadsettings@i^0,c
  2189  001188  EFC8  F008         	goto	u1361
  2190  00118C  EFCA  F008         	goto	u1360
  2191  001190                     u1361:
  2192  001190  EF9D  F008         	goto	l1637
  2193  001194                     u1360:
  2194  001194                     l1640:
  2195  001194  0012               	return		;funcret
  2196  001196                     __end_of_loadsettings:
  2197                           	callstack 0
  2198                           
  2199 ;; *************** function _setdefaultsettings *****************
  2200 ;; Defined at:
  2201 ;;		line 15 in file "settings.c"
  2202 ;; Parameters:    Size  Location     Type
  2203 ;;		None
  2204 ;; Auto vars:     Size  Location     Type
  2205 ;;		None
  2206 ;; Return value:  Size  Location     Type
  2207 ;;                  1    wreg      void 
  2208 ;; Registers used:
  2209 ;;		wreg, status,2
  2210 ;; Tracked objects:
  2211 ;;		On entry : 0/0
  2212 ;;		On exit  : 0/0
  2213 ;;		Unchanged: 0/0
  2214 ;; Data sizes:     COMRAM   BANK0   BANK1   BANK2   BANK3   BANK4   BANK5   BANK6   BANK7
  2215 ;;      Params:         0       0       0       0       0       0       0       0       0
  2216 ;;      Locals:         0       0       0       0       0       0       0       0       0
  2217 ;;      Temps:          0       0       0       0       0       0       0       0       0
  2218 ;;      Totals:         0       0       0       0       0       0       0       0       0
  2219 ;;Total ram usage:        0 bytes
  2220 ;; Hardware stack levels used: 1
  2221 ;; Hardware stack levels required when called: 2
  2222 ;; This function calls:
  2223 ;;		Nothing
  2224 ;; This function is called by:
  2225 ;;		_loadsettings
  2226 ;; This function uses a non-reentrant model
  2227 ;;
  2228                           
  2229                           	psect	text9
  2230  00105A                     __ptext9:
  2231                           	callstack 0
  2232  00105A                     _setdefaultsettings:
  2233                           	callstack 27
  2234  00105A                     
  2235                           ;settings.c: 17:     SettingData.buffer = 0x0000;
  2236  00105A  0E00               	movlw	0
  2237  00105C  0107               	movlb	7	; () banked
  2238  00105E  6FD4               	movwf	212,b
  2239  001060  0E00               	movlw	0
  2240  001062  6FD3               	movwf	211,b
  2241                           
  2242                           ;settings.c: 18:     SettingData.configKey = 0x4E;
  2243  001064  0E4E               	movlw	78
  2244  001066  6FD5               	movwf	213,b
  2245                           
  2246                           ;settings.c: 20:     SettingData.sx_low = 140U;
  2247  001068  0E00               	movlw	0
  2248  00106A  6FD7               	movwf	215,b
  2249  00106C  0E8C               	movlw	140
  2250  00106E  6FD6               	movwf	214,b
  2251                           
  2252                           ;settings.c: 21:     SettingData.sx_center = 254U;
  2253  001070  0E00               	movlw	0
  2254  001072  6FD9               	movwf	217,b
  2255  001074  0EFE               	movlw	254
  2256  001076  6FD8               	movwf	216,b
  2257                           
  2258                           ;settings.c: 22:     SettingData.sx_high = 385U;
  2259  001078  0E01               	movlw	1
  2260  00107A  6FDB               	movwf	219,b
  2261  00107C  0E81               	movlw	129
  2262  00107E  6FDA               	movwf	218,b
  2263                           
  2264                           ;settings.c: 24:     SettingData.sy_low = 140U;
  2265  001080  0E00               	movlw	0
  2266  001082  6FDD               	movwf	221,b
  2267  001084  0E8C               	movlw	140
  2268  001086  6FDC               	movwf	220,b
  2269                           
  2270                           ;settings.c: 25:     SettingData.sy_center = 252U;
  2271  001088  0E00               	movlw	0
  2272  00108A  6FDF               	movwf	223,b
  2273  00108C  0EFC               	movlw	252
  2274  00108E  6FDE               	movwf	222,b
  2275                           
  2276                           ;settings.c: 26:     SettingData.sy_high = 398U;
  2277  001090  0E01               	movlw	1
  2278  001092  6FE1               	movwf	225,b
  2279  001094  0E8E               	movlw	142
  2280  001096  6FE0               	movwf	224,b
  2281                           
  2282                           ;settings.c: 28:     SettingData.cx_low = 108U;
  2283  001098  0E00               	movlw	0
  2284  00109A  6FE3               	movwf	227,b
  2285  00109C  0E6C               	movlw	108
  2286  00109E  6FE2               	movwf	226,b
  2287                           
  2288                           ;settings.c: 29:     SettingData.cx_center = 252U;
  2289  0010A0  0E00               	movlw	0
  2290  0010A2  6FE5               	movwf	229,b
  2291  0010A4  0EFC               	movlw	252
  2292  0010A6  6FE4               	movwf	228,b
  2293                           
  2294                           ;settings.c: 30:     SettingData.cx_high = 355U;
  2295  0010A8  0E01               	movlw	1
  2296  0010AA  6FE7               	movwf	231,b
  2297  0010AC  0E63               	movlw	99
  2298  0010AE  6FE6               	movwf	230,b
  2299                           
  2300                           ;settings.c: 32:     SettingData.cy_low = 127U;
  2301  0010B0  0E00               	movlw	0
  2302  0010B2  6FE9               	movwf	233,b
  2303  0010B4  0E7F               	movlw	127
  2304  0010B6  6FE8               	movwf	232,b
  2305                           
  2306                           ;settings.c: 33:     SettingData.cy_center = 254U;
  2307  0010B8  0E00               	movlw	0
  2308  0010BA  6FEB               	movwf	235,b
  2309  0010BC  0EFE               	movlw	254
  2310  0010BE  6FEA               	movwf	234,b
  2311                           
  2312                           ;settings.c: 34:     SettingData.cy_high = 385U;
  2313  0010C0  0E01               	movlw	1
  2314  0010C2  6FED               	movwf	237,b
  2315  0010C4  0E81               	movlw	129
  2316  0010C6  6FEC               	movwf	236,b
  2317                           
  2318                           ;settings.c: 36:     SettingData.sx_highMultiplier = 200U;
  2319  0010C8  0E00               	movlw	0
  2320  0010CA  6FEF               	movwf	239,b
  2321  0010CC  0EC8               	movlw	200
  2322  0010CE  6FEE               	movwf	238,b
  2323                           
  2324                           ;settings.c: 37:     SettingData.sx_lowMultiplier = 232U;
  2325  0010D0  0E00               	movlw	0
  2326  0010D2  6FF1               	movwf	241,b
  2327  0010D4  0EE8               	movlw	232
  2328  0010D6  6FF0               	movwf	240,b
  2329                           
  2330                           ;settings.c: 39:     SettingData.sy_highMultiplier = 175U;
  2331  0010D8  0E00               	movlw	0
  2332  0010DA  6FF3               	movwf	243,b
  2333  0010DC  0EAF               	movlw	175
  2334  0010DE  6FF2               	movwf	242,b
  2335                           
  2336                           ;settings.c: 40:     SettingData.sy_lowMultiplier = 228U;
  2337  0010E0  0E00               	movlw	0
  2338  0010E2  6FF5               	movwf	245,b
  2339  0010E4  0EE4               	movlw	228
  2340  0010E6  6FF4               	movwf	244,b
  2341                           
  2342                           ;settings.c: 42:     SettingData.cx_highMultiplier = 257U;
  2343  0010E8  0E01               	movlw	1
  2344  0010EA  6FF7               	movwf	247,b
  2345  0010EC  0E01               	movlw	1
  2346  0010EE  6FF6               	movwf	246,b
  2347                           
  2348                           ;settings.c: 43:     SettingData.cx_lowMultiplier = 177U;
  2349  0010F0  0E00               	movlw	0
  2350  0010F2  6FF9               	movwf	249,b
  2351  0010F4  0EB1               	movlw	177
  2352  0010F6  6FF8               	movwf	248,b
  2353                           
  2354                           ;settings.c: 45:     SettingData.cy_highMultiplier = 195U;
  2355  0010F8  0E00               	movlw	0
  2356  0010FA  6FFB               	movwf	251,b
  2357  0010FC  0EC3               	movlw	195
  2358  0010FE  6FFA               	movwf	250,b
  2359                           
  2360                           ;settings.c: 46:     SettingData.cy_lowMultiplier = 201U;
  2361  001100  0E00               	movlw	0
  2362  001102  6FFD               	movwf	253,b
  2363  001104  0EC9               	movlw	201
  2364  001106  6FFC               	movwf	252,b
  2365                           
  2366                           ;settings.c: 48:     SettingData.modeData = 0U;
  2367  001108  0E00               	movlw	0
  2368  00110A  6FFE               	movwf	254,b
  2369                           
  2370                           ;settings.c: 54:     SettingData.rumbleData = 1U;
  2371  00110C  0E01               	movlw	1
  2372  00110E  6FFF               	movwf	255,b
  2373  001110                     
  2374                           ; BSR set to: 7
  2375  001110  0012               	return		;funcret
  2376  001112                     __end_of_setdefaultsettings:
  2377                           	callstack 0
  2378                           
  2379 ;; *************** function _savesettings *****************
  2380 ;; Defined at:
  2381 ;;		line 111 in file "settings.c"
  2382 ;; Parameters:    Size  Location     Type
  2383 ;;		None
  2384 ;; Auto vars:     Size  Location     Type
  2385 ;;  writing         2    7[COMRAM] PTR unsigned char 
  2386 ;;		 -> SettingData(45), 
  2387 ;;  i               1    9[COMRAM] unsigned char 
  2388 ;; Return value:  Size  Location     Type
  2389 ;;                  1    wreg      void 
  2390 ;; Registers used:
  2391 ;;		wreg, fsr2l, fsr2h, status,2, status,0, cstack
  2392 ;; Tracked objects:
  2393 ;;		On entry : 0/0
  2394 ;;		On exit  : 0/0
  2395 ;;		Unchanged: 0/0
  2396 ;; Data sizes:     COMRAM   BANK0   BANK1   BANK2   BANK3   BANK4   BANK5   BANK6   BANK7
  2397 ;;      Params:         0       0       0       0       0       0       0       0       0
  2398 ;;      Locals:         3       0       0       0       0       0       0       0       0
  2399 ;;      Temps:          0       0       0       0       0       0       0       0       0
  2400 ;;      Totals:         3       0       0       0       0       0       0       0       0
  2401 ;;Total ram usage:        3 bytes
  2402 ;; Hardware stack levels used: 1
  2403 ;; Hardware stack levels required when called: 3
  2404 ;; This function calls:
  2405 ;;		_DATAEE_WriteByte
  2406 ;; This function is called by:
  2407 ;;		_main
  2408 ;;		_loadsettings
  2409 ;; This function uses a non-reentrant model
  2410 ;;
  2411                           
  2412                           	psect	text10
  2413  00153E                     __ptext10:
  2414                           	callstack 0
  2415  00153E                     _savesettings:
  2416                           	callstack 27
  2417  00153E                     
  2418                           ;settings.c: 113:     uint8_t i;;settings.c: 114:     uint8_t* writing = (uint8_t*)&Sett
      +                          ingData;
  2419  00153E  0ED3               	movlw	211
  2420  001540  6E50               	movwf	savesettings@writing^0,c
  2421  001542  0E07               	movlw	7
  2422  001544  6E51               	movwf	(savesettings@writing+1)^0,c
  2423  001546                     
  2424                           ;settings.c: 115:     for (i = 0; i < sizeof(Settings); i++)
  2425  001546  0E00               	movlw	0
  2426  001548  6E52               	movwf	savesettings@i^0,c
  2427  00154A                     l3471:
  2428                           
  2429                           ;settings.c: 116:     {;settings.c: 117:         DATAEE_WriteByte(i, writing[i]);
  2430  00154A  5052               	movf	savesettings@i^0,w,c
  2431  00154C  2450               	addwf	savesettings@writing^0,w,c
  2432  00154E  6ED9               	movwf	fsr2l,c
  2433  001550  0E00               	movlw	0
  2434  001552  2051               	addwfc	(savesettings@writing+1)^0,w,c
  2435  001554  6EDA               	movwf	fsr2h,c
  2436  001556  50DF               	movf	indf2,w,c
  2437  001558  6E4D               	movwf	DATAEE_WriteByte@bData^0,c
  2438  00155A  5052               	movf	savesettings@i^0,w,c
  2439  00155C  EC3B  F00A         	call	_DATAEE_WriteByte
  2440  001560                     
  2441                           ;settings.c: 118:     }
  2442  001560  2A52               	incf	savesettings@i^0,f,c
  2443  001562  0E2C               	movlw	44
  2444  001564  6452               	cpfsgt	savesettings@i^0,c
  2445  001566  EFB7  F00A         	goto	u1281
  2446  00156A  EFB9  F00A         	goto	u1280
  2447  00156E                     u1281:
  2448  00156E  EFA5  F00A         	goto	l3471
  2449  001572                     u1280:
  2450  001572  0012               	return		;funcret
  2451  001574                     __end_of_savesettings:
  2452                           	callstack 0
  2453                           
  2454 ;; *************** function _DATAEE_WriteByte *****************
  2455 ;; Defined at:
  2456 ;;		line 165 in file "mcc_generated_files/memory.c"
  2457 ;; Parameters:    Size  Location     Type
  2458 ;;  bAdd            1    wreg     unsigned char 
  2459 ;;  bData           1    4[COMRAM] unsigned char 
  2460 ;; Auto vars:     Size  Location     Type
  2461 ;;  bAdd            1    5[COMRAM] unsigned char 
  2462 ;;  GIEBitValue     1    6[COMRAM] unsigned char 
  2463 ;; Return value:  Size  Location     Type
  2464 ;;                  1    wreg      void 
  2465 ;; Registers used:
  2466 ;;		wreg, status,2
  2467 ;; Tracked objects:
  2468 ;;		On entry : 0/0
  2469 ;;		On exit  : 0/0
  2470 ;;		Unchanged: 0/0
  2471 ;; Data sizes:     COMRAM   BANK0   BANK1   BANK2   BANK3   BANK4   BANK5   BANK6   BANK7
  2472 ;;      Params:         1       0       0       0       0       0       0       0       0
  2473 ;;      Locals:         2       0       0       0       0       0       0       0       0
  2474 ;;      Temps:          0       0       0       0       0       0       0       0       0
  2475 ;;      Totals:         3       0       0       0       0       0       0       0       0
  2476 ;;Total ram usage:        3 bytes
  2477 ;; Hardware stack levels used: 1
  2478 ;; Hardware stack levels required when called: 2
  2479 ;; This function calls:
  2480 ;;		Nothing
  2481 ;; This function is called by:
  2482 ;;		_savesettings
  2483 ;; This function uses a non-reentrant model
  2484 ;;
  2485                           
  2486                           	psect	text11
  2487  001476                     __ptext11:
  2488                           	callstack 0
  2489  001476                     _DATAEE_WriteByte:
  2490                           	callstack 27
  2491                           
  2492                           ;incstack = 0
  2493                           ;DATAEE_WriteByte@bAdd stored from wreg
  2494  001476  6E4E               	movwf	DATAEE_WriteByte@bAdd^0,c
  2495  001478                     
  2496                           ;mcc_generated_files/memory.c: 165: void DATAEE_WriteByte(uint8_t bAdd, uint8_t bData);m
      +                          cc_generated_files/memory.c: 166: {;mcc_generated_files/memory.c: 167:     uint8_t GIEBi
      +                          tValue = INTCON0bits.GIE;
  2497  001478  0E00               	movlw	0
  2498  00147A  BED2               	btfsc	210,7,c	;volatile
  2499  00147C  0E01               	movlw	1
  2500  00147E  6E4F               	movwf	DATAEE_WriteByte@GIEBitValue^0,c
  2501  001480                     
  2502                           ;mcc_generated_files/memory.c: 169:     NVMADRL = (uint8_t)(bAdd & 0xFF);
  2503  001480  0060  F13B  F9E0   	movff	DATAEE_WriteByte@bAdd,14816	;volatile
  2504  001486                     
  2505                           ;mcc_generated_files/memory.c: 170:     NVMDAT = bData;
  2506  001486  0060  F137  F9E3   	movff	DATAEE_WriteByte@bData,14819	;volatile
  2507  00148C                     
  2508                           ;mcc_generated_files/memory.c: 171:     NVMCON1bits.NVMREG = 0;
  2509  00148C  0E3F               	movlw	-193
  2510  00148E  0139               	movlb	57	; () banked
  2511  001490  17E5               	andwf	229,f,b	;volsfr
  2512  001492                     
  2513                           ; BSR set to: 57
  2514                           ;mcc_generated_files/memory.c: 172:     NVMCON1bits.WREN = 1;
  2515  001492  85E5               	bsf	229,2,b	;volsfr
  2516  001494                     
  2517                           ; BSR set to: 57
  2518                           ;mcc_generated_files/memory.c: 173:     INTCON0bits.GIE = 0;
  2519  001494  9ED2               	bcf	210,7,c	;volatile
  2520  001496                     
  2521                           ; BSR set to: 57
  2522                           ;mcc_generated_files/memory.c: 174:     NVMCON2 = 0x55;
  2523  001496  0E55               	movlw	85
  2524  001498  6FE6               	movwf	230,b	;volsfr
  2525  00149A                     
  2526                           ; BSR set to: 57
  2527                           ;mcc_generated_files/memory.c: 175:     NVMCON2 = 0xAA;
  2528  00149A  0EAA               	movlw	170
  2529  00149C  6FE6               	movwf	230,b	;volsfr
  2530  00149E                     
  2531                           ; BSR set to: 57
  2532                           ;mcc_generated_files/memory.c: 176:     NVMCON1bits.WR = 1;
  2533  00149E  83E5               	bsf	229,1,b	;volsfr
  2534  0014A0                     l758:
  2535                           
  2536                           ; BSR set to: 57
  2537                           ;mcc_generated_files/memory.c: 178:     while (NVMCON1bits.WR)
  2538  0014A0  B3E5               	btfsc	229,1,b	;volsfr
  2539  0014A2  EF55  F00A         	goto	u1231
  2540  0014A6  EF57  F00A         	goto	u1230
  2541  0014AA                     u1231:
  2542  0014AA  EF50  F00A         	goto	l758
  2543  0014AE                     u1230:
  2544  0014AE                     
  2545                           ; BSR set to: 57
  2546                           ;mcc_generated_files/memory.c: 182:     NVMCON1bits.WREN = 0;
  2547  0014AE  95E5               	bcf	229,2,b	;volsfr
  2548                           
  2549                           ;mcc_generated_files/memory.c: 183:     INTCON0bits.GIE = GIEBitValue;
  2550  0014B0  B04F               	btfsc	DATAEE_WriteByte@GIEBitValue^0,0,c
  2551  0014B2  D002               	bra	u1245
  2552  0014B4  9ED2               	bcf	210,7,c	;volatile
  2553  0014B6  D001               	bra	u1246
  2554  0014B8                     u1245:
  2555  0014B8  8ED2               	bsf	210,7,c	;volatile
  2556  0014BA                     u1246:
  2557  0014BA  0012               	return		;funcret
  2558  0014BC                     __end_of_DATAEE_WriteByte:
  2559                           	callstack 0
  2560                           
  2561 ;; *************** function _memset *****************
  2562 ;; Defined at:
  2563 ;;		line 4 in file "C:\Program Files\Microchip\xc8\v2.32\pic\sources\c99\common\memset.c"
  2564 ;; Parameters:    Size  Location     Type
  2565 ;;  dest            2    4[COMRAM] PTR void 
  2566 ;;		 -> SettingData(45), 
  2567 ;;  c               2    6[COMRAM] int 
  2568 ;;  n               2    8[COMRAM] unsigned int 
  2569 ;; Auto vars:     Size  Location     Type
  2570 ;;  s               2   14[COMRAM] PTR unsigned char 
  2571 ;;		 -> SettingData(45), 
  2572 ;;  k               2   12[COMRAM] unsigned int 
  2573 ;; Return value:  Size  Location     Type
  2574 ;;                  2    4[COMRAM] PTR void 
  2575 ;; Registers used:
  2576 ;;		wreg, fsr2l, fsr2h, status,2, status,0
  2577 ;; Tracked objects:
  2578 ;;		On entry : 0/0
  2579 ;;		On exit  : 0/0
  2580 ;;		Unchanged: 0/0
  2581 ;; Data sizes:     COMRAM   BANK0   BANK1   BANK2   BANK3   BANK4   BANK5   BANK6   BANK7
  2582 ;;      Params:         6       0       0       0       0       0       0       0       0
  2583 ;;      Locals:         4       0       0       0       0       0       0       0       0
  2584 ;;      Temps:          2       0       0       0       0       0       0       0       0
  2585 ;;      Totals:        12       0       0       0       0       0       0       0       0
  2586 ;;Total ram usage:       12 bytes
  2587 ;; Hardware stack levels used: 1
  2588 ;; Hardware stack levels required when called: 2
  2589 ;; This function calls:
  2590 ;;		Nothing
  2591 ;; This function is called by:
  2592 ;;		_loadsettings
  2593 ;; This function uses a non-reentrant model
  2594 ;;
  2595                           
  2596                           	psect	text12
  2597  000C8A                     __ptext12:
  2598                           	callstack 0
  2599  000C8A                     _memset:
  2600                           	callstack 27
  2601  000C8A  C04D  F057         	movff	memset@dest,memset@s
  2602  000C8E  C04E  F058         	movff	memset@dest+1,memset@s+1
  2603  000C92  5051               	movf	memset@n^0,w,c
  2604  000C94  1052               	iorwf	(memset@n+1)^0,w,c
  2605  000C96  A4D8               	btfss	status,2,c
  2606  000C98  EF50  F006         	goto	u1291
  2607  000C9C  EF52  F006         	goto	u1290
  2608  000CA0                     u1291:
  2609  000CA0  EF54  F006         	goto	l3499
  2610  000CA4                     u1290:
  2611  000CA4  EF0C  F007         	goto	l2323
  2612  000CA8                     l3499:
  2613  000CA8  0060  F15F  FFD9   	movff	memset@s,fsr2l
  2614  000CAE  0060  F163  FFDA   	movff	memset@s+1,fsr2h
  2615  000CB4  0060  F13F  FFDF   	movff	memset@c,indf2
  2616  000CBA  5051               	movf	memset@n^0,w,c
  2617  000CBC  2457               	addwf	memset@s^0,w,c
  2618  000CBE  6E53               	movwf	??_memset^0,c
  2619  000CC0  5052               	movf	(memset@n+1)^0,w,c
  2620  000CC2  2058               	addwfc	(memset@s+1)^0,w,c
  2621  000CC4  6E54               	movwf	(??_memset+1)^0,c
  2622  000CC6  0EFF               	movlw	255
  2623  000CC8  2453               	addwf	??_memset^0,w,c
  2624  000CCA  6ED9               	movwf	fsr2l,c
  2625  000CCC  0EFF               	movlw	255
  2626  000CCE  2054               	addwfc	(??_memset+1)^0,w,c
  2627  000CD0  6EDA               	movwf	fsr2h,c
  2628  000CD2  0060  F13F  FFDF   	movff	memset@c,indf2
  2629  000CD8  5052               	movf	(memset@n+1)^0,w,c
  2630  000CDA  E107               	bnz	u1301
  2631  000CDC  0E03               	movlw	3
  2632  000CDE  5C51               	subwf	memset@n^0,w,c
  2633  000CE0  B0D8               	btfsc	status,0,c
  2634  000CE2  EF75  F006         	goto	u1301
  2635  000CE6  EF77  F006         	goto	u1300
  2636  000CEA                     u1301:
  2637  000CEA  EF79  F006         	goto	l3505
  2638  000CEE                     u1300:
  2639  000CEE  EF0C  F007         	goto	l2323
  2640  000CF2                     l3505:
  2641  000CF2  EE20 F001          	lfsr	2,1
  2642  000CF6  5057               	movf	memset@s^0,w,c
  2643  000CF8  26D9               	addwf	fsr2l,f,c
  2644  000CFA  5058               	movf	(memset@s+1)^0,w,c
  2645  000CFC  22DA               	addwfc	fsr2h,f,c
  2646  000CFE  0060  F13F  FFDF   	movff	memset@c,indf2
  2647  000D04  EE20 F002          	lfsr	2,2
  2648  000D08  5057               	movf	memset@s^0,w,c
  2649  000D0A  26D9               	addwf	fsr2l,f,c
  2650  000D0C  5058               	movf	(memset@s+1)^0,w,c
  2651  000D0E  22DA               	addwfc	fsr2h,f,c
  2652  000D10  0060  F13F  FFDF   	movff	memset@c,indf2
  2653  000D16  5051               	movf	memset@n^0,w,c
  2654  000D18  2457               	addwf	memset@s^0,w,c
  2655  000D1A  6E53               	movwf	??_memset^0,c
  2656  000D1C  5052               	movf	(memset@n+1)^0,w,c
  2657  000D1E  2058               	addwfc	(memset@s+1)^0,w,c
  2658  000D20  6E54               	movwf	(??_memset+1)^0,c
  2659  000D22  0EFE               	movlw	254
  2660  000D24  2453               	addwf	??_memset^0,w,c
  2661  000D26  6ED9               	movwf	fsr2l,c
  2662  000D28  0EFF               	movlw	255
  2663  000D2A  2054               	addwfc	(??_memset+1)^0,w,c
  2664  000D2C  6EDA               	movwf	fsr2h,c
  2665  000D2E  0060  F13F  FFDF   	movff	memset@c,indf2
  2666  000D34  5051               	movf	memset@n^0,w,c
  2667  000D36  2457               	addwf	memset@s^0,w,c
  2668  000D38  6E53               	movwf	??_memset^0,c
  2669  000D3A  5052               	movf	(memset@n+1)^0,w,c
  2670  000D3C  2058               	addwfc	(memset@s+1)^0,w,c
  2671  000D3E  6E54               	movwf	(??_memset+1)^0,c
  2672  000D40  0EFD               	movlw	253
  2673  000D42  2453               	addwf	??_memset^0,w,c
  2674  000D44  6ED9               	movwf	fsr2l,c
  2675  000D46  0EFF               	movlw	255
  2676  000D48  2054               	addwfc	(??_memset+1)^0,w,c
  2677  000D4A  6EDA               	movwf	fsr2h,c
  2678  000D4C  0060  F13F  FFDF   	movff	memset@c,indf2
  2679  000D52  5052               	movf	(memset@n+1)^0,w,c
  2680  000D54  E107               	bnz	u1311
  2681  000D56  0E07               	movlw	7
  2682  000D58  5C51               	subwf	memset@n^0,w,c
  2683  000D5A  B0D8               	btfsc	status,0,c
  2684  000D5C  EFB2  F006         	goto	u1311
  2685  000D60  EFB4  F006         	goto	u1310
  2686  000D64                     u1311:
  2687  000D64  EFB6  F006         	goto	l3511
  2688  000D68                     u1310:
  2689  000D68  EF0C  F007         	goto	l2323
  2690  000D6C                     l3511:
  2691  000D6C  EE20 F003          	lfsr	2,3
  2692  000D70  5057               	movf	memset@s^0,w,c
  2693  000D72  26D9               	addwf	fsr2l,f,c
  2694  000D74  5058               	movf	(memset@s+1)^0,w,c
  2695  000D76  22DA               	addwfc	fsr2h,f,c
  2696  000D78  0060  F13F  FFDF   	movff	memset@c,indf2
  2697  000D7E  5051               	movf	memset@n^0,w,c
  2698  000D80  2457               	addwf	memset@s^0,w,c
  2699  000D82  6E53               	movwf	??_memset^0,c
  2700  000D84  5052               	movf	(memset@n+1)^0,w,c
  2701  000D86  2058               	addwfc	(memset@s+1)^0,w,c
  2702  000D88  6E54               	movwf	(??_memset+1)^0,c
  2703  000D8A  0EFC               	movlw	252
  2704  000D8C  2453               	addwf	??_memset^0,w,c
  2705  000D8E  6ED9               	movwf	fsr2l,c
  2706  000D90  0EFF               	movlw	255
  2707  000D92  2054               	addwfc	(??_memset+1)^0,w,c
  2708  000D94  6EDA               	movwf	fsr2h,c
  2709  000D96  0060  F13F  FFDF   	movff	memset@c,indf2
  2710  000D9C  5052               	movf	(memset@n+1)^0,w,c
  2711  000D9E  E107               	bnz	u1321
  2712  000DA0  0E09               	movlw	9
  2713  000DA2  5C51               	subwf	memset@n^0,w,c
  2714  000DA4  B0D8               	btfsc	status,0,c
  2715  000DA6  EFD7  F006         	goto	u1321
  2716  000DAA  EFD9  F006         	goto	u1320
  2717  000DAE                     u1321:
  2718  000DAE  EFDB  F006         	goto	l3517
  2719  000DB2                     u1320:
  2720  000DB2  EF0C  F007         	goto	l2323
  2721  000DB6                     l3517:
  2722  000DB6  C057  F053         	movff	memset@s,??_memset
  2723  000DBA  C058  F054         	movff	memset@s+1,??_memset+1
  2724  000DBE  1E53               	comf	??_memset^0,f,c
  2725  000DC0  1E54               	comf	(??_memset+1)^0,f,c
  2726  000DC2  4A53               	infsnz	??_memset^0,f,c
  2727  000DC4  2A54               	incf	(??_memset+1)^0,f,c
  2728  000DC6  0E03               	movlw	3
  2729  000DC8  1453               	andwf	??_memset^0,w,c
  2730  000DCA  6E55               	movwf	memset@k^0,c
  2731  000DCC  6A56               	clrf	(memset@k+1)^0,c
  2732  000DCE  5055               	movf	memset@k^0,w,c
  2733  000DD0  2657               	addwf	memset@s^0,f,c
  2734  000DD2  5056               	movf	(memset@k+1)^0,w,c
  2735  000DD4  2258               	addwfc	(memset@s+1)^0,f,c
  2736  000DD6  5055               	movf	memset@k^0,w,c
  2737  000DD8  5E51               	subwf	memset@n^0,f,c
  2738  000DDA  5056               	movf	(memset@k+1)^0,w,c
  2739  000DDC  5A52               	subwfb	(memset@n+1)^0,f,c
  2740  000DDE  0EFC               	movlw	252
  2741  000DE0  1651               	andwf	memset@n^0,f,c
  2742  000DE2  0EFF               	movlw	255
  2743  000DE4  1652               	andwf	(memset@n+1)^0,f,c
  2744  000DE6  EF03  F007         	goto	l3525
  2745  000DEA                     l3519:
  2746  000DEA  0060  F15F  FFD9   	movff	memset@s,fsr2l
  2747  000DF0  0060  F163  FFDA   	movff	memset@s+1,fsr2h
  2748  000DF6  0060  F13F  FFDF   	movff	memset@c,indf2
  2749  000DFC  0651               	decf	memset@n^0,f,c
  2750  000DFE  A0D8               	btfss	status,0,c
  2751  000E00  0652               	decf	(memset@n+1)^0,f,c
  2752  000E02  4A57               	infsnz	memset@s^0,f,c
  2753  000E04  2A58               	incf	(memset@s+1)^0,f,c
  2754  000E06                     l3525:
  2755  000E06  5051               	movf	memset@n^0,w,c
  2756  000E08  1052               	iorwf	(memset@n+1)^0,w,c
  2757  000E0A  A4D8               	btfss	status,2,c
  2758  000E0C  EF0A  F007         	goto	u1331
  2759  000E10  EF0C  F007         	goto	u1330
  2760  000E14                     u1331:
  2761  000E14  EFF5  F006         	goto	l3519
  2762  000E18                     u1330:
  2763  000E18                     l2323:
  2764  000E18  0012               	return		;funcret
  2765  000E1A                     __end_of_memset:
  2766                           	callstack 0
  2767                           
  2768 ;; *************** function _DATAEE_ReadByte *****************
  2769 ;; Defined at:
  2770 ;;		line 186 in file "mcc_generated_files/memory.c"
  2771 ;; Parameters:    Size  Location     Type
  2772 ;;  bAdd            1    wreg     unsigned char 
  2773 ;; Auto vars:     Size  Location     Type
  2774 ;;  bAdd            1    4[COMRAM] unsigned char 
  2775 ;; Return value:  Size  Location     Type
  2776 ;;                  1    wreg      unsigned char 
  2777 ;; Registers used:
  2778 ;;		wreg, status,2
  2779 ;; Tracked objects:
  2780 ;;		On entry : 0/0
  2781 ;;		On exit  : 0/0
  2782 ;;		Unchanged: 0/0
  2783 ;; Data sizes:     COMRAM   BANK0   BANK1   BANK2   BANK3   BANK4   BANK5   BANK6   BANK7
  2784 ;;      Params:         0       0       0       0       0       0       0       0       0
  2785 ;;      Locals:         1       0       0       0       0       0       0       0       0
  2786 ;;      Temps:          0       0       0       0       0       0       0       0       0
  2787 ;;      Totals:         1       0       0       0       0       0       0       0       0
  2788 ;;Total ram usage:        1 bytes
  2789 ;; Hardware stack levels used: 1
  2790 ;; Hardware stack levels required when called: 2
  2791 ;; This function calls:
  2792 ;;		Nothing
  2793 ;; This function is called by:
  2794 ;;		_loadsettings
  2795 ;; This function uses a non-reentrant model
  2796 ;;
  2797                           
  2798                           	psect	text13
  2799  0016C4                     __ptext13:
  2800                           	callstack 0
  2801  0016C4                     _DATAEE_ReadByte:
  2802                           	callstack 27
  2803                           
  2804                           ;incstack = 0
  2805                           ;DATAEE_ReadByte@bAdd stored from wreg
  2806  0016C4  6E4D               	movwf	DATAEE_ReadByte@bAdd^0,c
  2807  0016C6                     
  2808                           ;mcc_generated_files/memory.c: 186: uint8_t DATAEE_ReadByte(uint8_t bAdd);mcc_generated_
      +                          files/memory.c: 187: {;mcc_generated_files/memory.c: 188:     NVMADRL = (uint8_t)(bAdd &
      +                           0xFF);
  2809  0016C6  0060  F137  F9E0   	movff	DATAEE_ReadByte@bAdd,14816	;volatile
  2810  0016CC                     
  2811                           ;mcc_generated_files/memory.c: 189:     NVMCON1bits.NVMREG = 0;
  2812  0016CC  0E3F               	movlw	-193
  2813  0016CE  0139               	movlb	57	; () banked
  2814  0016D0  17E5               	andwf	229,f,b	;volsfr
  2815  0016D2                     
  2816                           ; BSR set to: 57
  2817                           ;mcc_generated_files/memory.c: 190:     NVMCON1bits.RD = 1;
  2818  0016D2  81E5               	bsf	229,0,b	;volsfr
  2819  0016D4                     
  2820                           ; BSR set to: 57
  2821                           ;mcc_generated_files/memory.c: 191:     __nop();
  2822  0016D4  F000               	nop	
  2823  0016D6                     
  2824                           ;mcc_generated_files/memory.c: 192:     __nop();
  2825  0016D6  F000               	nop	
  2826  0016D8                     
  2827                           ;mcc_generated_files/memory.c: 194:     return (NVMDAT);
  2828  0016D8  0139               	movlb	57	; () banked
  2829  0016DA  51E3               	movf	227,w,b	;volatile
  2830  0016DC                     
  2831                           ; BSR set to: 57
  2832  0016DC  0012               	return		;funcret
  2833  0016DE                     __end_of_DATAEE_ReadByte:
  2834                           	callstack 0
  2835                           
  2836 ;; *************** function _desyncfix *****************
  2837 ;; Defined at:
  2838 ;;		line 116 in file "gcdata.c"
  2839 ;; Parameters:    Size  Location     Type
  2840 ;;		None
  2841 ;; Auto vars:     Size  Location     Type
  2842 ;;		None
  2843 ;; Return value:  Size  Location     Type
  2844 ;;                  1    wreg      void 
  2845 ;; Registers used:
  2846 ;;		wreg
  2847 ;; Tracked objects:
  2848 ;;		On entry : 0/0
  2849 ;;		On exit  : 0/0
  2850 ;;		Unchanged: 0/0
  2851 ;; Data sizes:     COMRAM   BANK0   BANK1   BANK2   BANK3   BANK4   BANK5   BANK6   BANK7
  2852 ;;      Params:         0       0       0       0       0       0       0       0       0
  2853 ;;      Locals:         0       0       0       0       0       0       0       0       0
  2854 ;;      Temps:          1       0       0       0       0       0       0       0       0
  2855 ;;      Totals:         1       0       0       0       0       0       0       0       0
  2856 ;;Total ram usage:        1 bytes
  2857 ;; Hardware stack levels used: 1
  2858 ;; Hardware stack levels required when called: 2
  2859 ;; This function calls:
  2860 ;;		Nothing
  2861 ;; This function is called by:
  2862 ;;		_main
  2863 ;; This function uses a non-reentrant model
  2864 ;;
  2865                           
  2866                           	psect	text14
  2867  00170E                     __ptext14:
  2868                           	callstack 0
  2869  00170E                     _desyncfix:
  2870                           	callstack 28
  2871  00170E                     
  2872                           ;gcdata.c: 117:     _delay((unsigned long)((450)*(64000000/4000000.0)));
  2873  00170E  0E0A               	movlw	10
  2874  001710  6E4D               	movwf	??_desyncfix^0,c
  2875  001712  0E58               	movlw	88
  2876  001714                     u3147:
  2877  001714  2EE8               	decfsz	wreg,f,c
  2878  001716  D7FE               	bra	u3147
  2879  001718  2E4D               	decfsz	??_desyncfix^0,f,c
  2880  00171A  D7FC               	bra	u3147
  2881  00171C  D000               	nop2	
  2882  00171E  8A46               	bsf	_gInStatus,5,c	;# 
  2883  001720  0012               	return		;funcret
  2884  001722                     __end_of_desyncfix:
  2885                           	callstack 0
  2886                           
  2887 ;; *************** function _checkbuttons *****************
  2888 ;; Defined at:
  2889 ;;		line 12 in file "button.c"
  2890 ;; Parameters:    Size  Location     Type
  2891 ;;		None
  2892 ;; Auto vars:     Size  Location     Type
  2893 ;;		None
  2894 ;; Return value:  Size  Location     Type
  2895 ;;                  1    wreg      void 
  2896 ;; Registers used:
  2897 ;;		wreg, status,2, status,0
  2898 ;; Tracked objects:
  2899 ;;		On entry : 0/0
  2900 ;;		On exit  : 0/0
  2901 ;;		Unchanged: 0/0
  2902 ;; Data sizes:     COMRAM   BANK0   BANK1   BANK2   BANK3   BANK4   BANK5   BANK6   BANK7
  2903 ;;      Params:         0       0       0       0       0       0       0       0       0
  2904 ;;      Locals:         0      16       0       0       0       0       0       0       0
  2905 ;;      Temps:          2       0       0       0       0       0       0       0       0
  2906 ;;      Totals:         2      16       0       0       0       0       0       0       0
  2907 ;;Total ram usage:       18 bytes
  2908 ;; Hardware stack levels used: 1
  2909 ;; Hardware stack levels required when called: 2
  2910 ;; This function calls:
  2911 ;;		Nothing
  2912 ;; This function is called by:
  2913 ;;		_main
  2914 ;; This function uses a non-reentrant model
  2915 ;;
  2916                           
  2917                           	psect	text15
  2918  00001E                     __ptext15:
  2919                           	callstack 0
  2920  00001E                     _checkbuttons:
  2921                           	callstack 28
  2922  00001E                     
  2923                           ;button.c: 18:     if (!(gInStatus & (1 << 1)))
  2924  00001E  B246               	btfsc	_gInStatus^0,1,c	;volatile
  2925  000020  EF14  F000         	goto	u2411
  2926  000024  EF16  F000         	goto	u2410
  2927  000028                     u2411:
  2928  000028  EF1F  F000         	goto	l4151
  2929  00002C                     u2410:
  2930  00002C                     
  2931                           ;button.c: 19:     {;button.c: 22:         gConPollPacket[0] = 0x0;
  2932  00002C  0E00               	movlw	0
  2933  00002E  6E2F               	movwf	_gConPollPacket^0,c	;volatile
  2934                           
  2935                           ;button.c: 23:         gConPollPacket[1] = 0x0;
  2936  000030  0E00               	movlw	0
  2937  000032  6E30               	movwf	(_gConPollPacket+1)^0,c	;volatile
  2938                           
  2939                           ;button.c: 24:         gConPollPacket[6] = 0x0;
  2940  000034  0E00               	movlw	0
  2941  000036  6E35               	movwf	(_gConPollPacket+6)^0,c	;volatile
  2942                           
  2943                           ;button.c: 25:         gConPollPacket[7] = 0x0;
  2944  000038  0E00               	movlw	0
  2945  00003A  6E36               	movwf	(_gConPollPacket+7)^0,c	;volatile
  2946  00003C  8246               	bsf	_gInStatus,1,c	;# 
  2947  00003E                     l4151:
  2948                           
  2949                           ;button.c: 34:     gConPollPacket[0] |= !PORTCbits.RC1 << 4;
  2950  00003E  A2CC               	btfss	204,1,c	;volatile
  2951  000040  EF24  F000         	goto	u2421
  2952  000044  EF28  F000         	goto	u2420
  2953  000048                     u2421:
  2954  000048  6A4D               	clrf	??_checkbuttons^0,c
  2955  00004A  2A4D               	incf	??_checkbuttons^0,f,c
  2956  00004C  EF29  F000         	goto	u2438
  2957  000050                     u2420:
  2958  000050  6A4D               	clrf	??_checkbuttons^0,c
  2959  000052                     u2438:
  2960  000052  384D               	swapf	??_checkbuttons^0,w,c
  2961  000054  0BF0               	andlw	240
  2962  000056  122F               	iorwf	_gConPollPacket^0,f,c	;volatile
  2963  000058                     
  2964                           ;button.c: 35:     gConPollPacket[0] |= !PORTAbits.RA6 << 3;
  2965  000058  ACCA               	btfss	202,6,c	;volatile
  2966  00005A  EF31  F000         	goto	u2441
  2967  00005E  EF35  F000         	goto	u2440
  2968  000062                     u2441:
  2969  000062  6A4D               	clrf	??_checkbuttons^0,c
  2970  000064  2A4D               	incf	??_checkbuttons^0,f,c
  2971  000066  EF36  F000         	goto	u2458
  2972  00006A                     u2440:
  2973  00006A  6A4D               	clrf	??_checkbuttons^0,c
  2974  00006C                     u2458:
  2975  00006C  90D8               	bcf	status,0,c
  2976  00006E  364D               	rlcf	??_checkbuttons^0,f,c
  2977  000070  90D8               	bcf	status,0,c
  2978  000072  364D               	rlcf	??_checkbuttons^0,f,c
  2979  000074  90D8               	bcf	status,0,c
  2980  000076  344D               	rlcf	??_checkbuttons^0,w,c
  2981  000078  122F               	iorwf	_gConPollPacket^0,f,c	;volatile
  2982  00007A                     
  2983                           ;button.c: 36:     gConPollPacket[0] |= !PORTAbits.RA7 << 2;
  2984  00007A  AECA               	btfss	202,7,c	;volatile
  2985  00007C  EF42  F000         	goto	u2461
  2986  000080  EF46  F000         	goto	u2460
  2987  000084                     u2461:
  2988  000084  6A4D               	clrf	??_checkbuttons^0,c
  2989  000086  2A4D               	incf	??_checkbuttons^0,f,c
  2990  000088  EF47  F000         	goto	u2478
  2991  00008C                     u2460:
  2992  00008C  6A4D               	clrf	??_checkbuttons^0,c
  2993  00008E                     u2478:
  2994  00008E  90D8               	bcf	status,0,c
  2995  000090  364D               	rlcf	??_checkbuttons^0,f,c
  2996  000092  90D8               	bcf	status,0,c
  2997  000094  344D               	rlcf	??_checkbuttons^0,w,c
  2998  000096  122F               	iorwf	_gConPollPacket^0,f,c	;volatile
  2999  000098                     
  3000                           ;button.c: 37:     gConPollPacket[0] |= !PORTAbits.RA5 << 1;
  3001  000098  AACA               	btfss	202,5,c	;volatile
  3002  00009A  EF51  F000         	goto	u2481
  3003  00009E  EF55  F000         	goto	u2480
  3004  0000A2                     u2481:
  3005  0000A2  6A4D               	clrf	??_checkbuttons^0,c
  3006  0000A4  2A4D               	incf	??_checkbuttons^0,f,c
  3007  0000A6  EF56  F000         	goto	u2498
  3008  0000AA                     u2480:
  3009  0000AA  6A4D               	clrf	??_checkbuttons^0,c
  3010  0000AC                     u2498:
  3011  0000AC  90D8               	bcf	status,0,c
  3012  0000AE  344D               	rlcf	??_checkbuttons^0,w,c
  3013  0000B0  122F               	iorwf	_gConPollPacket^0,f,c	;volatile
  3014  0000B2                     
  3015                           ;button.c: 38:     gConPollPacket[0] |= !PORTAbits.RA4;
  3016  0000B2  A8CA               	btfss	202,4,c	;volatile
  3017  0000B4  EF5E  F000         	goto	u2501
  3018  0000B8  EF61  F000         	goto	u2500
  3019  0000BC                     u2501:
  3020  0000BC  0E01               	movlw	1
  3021  0000BE  EF62  F000         	goto	u2510
  3022  0000C2                     u2500:
  3023  0000C2  0E00               	movlw	0
  3024  0000C4                     u2510:
  3025  0000C4  122F               	iorwf	_gConPollPacket^0,f,c	;volatile
  3026  0000C6                     
  3027                           ;button.c: 43:     gConPollPacket[1] = 1 << 7;
  3028  0000C6  0E80               	movlw	128
  3029  0000C8  6E30               	movwf	(_gConPollPacket+1)^0,c	;volatile
  3030  0000CA                     
  3031                           ;button.c: 45:     if (SettingData.modeData == 0)
  3032  0000CA  0107               	movlb	7	; () banked
  3033  0000CC  51FE               	movf	254,w,b
  3034  0000CE  A4D8               	btfss	status,2,c
  3035  0000D0  EF6C  F000         	goto	u2521
  3036  0000D4  EF6E  F000         	goto	u2520
  3037  0000D8                     u2521:
  3038  0000D8  EFDA  F000         	goto	l4189
  3039  0000DC                     u2520:
  3040  0000DC                     
  3041                           ; BSR set to: 7
  3042                           ;button.c: 46:     {;button.c: 48:         gConPollPacket[1] |= !PORTCbits.RC5 << 6;
  3043  0000DC  AACC               	btfss	204,5,c	;volatile
  3044  0000DE  EF73  F000         	goto	u2531
  3045  0000E2  EF77  F000         	goto	u2530
  3046  0000E6                     u2531:
  3047  0000E6  6A4D               	clrf	??_checkbuttons^0,c
  3048  0000E8  2A4D               	incf	??_checkbuttons^0,f,c
  3049  0000EA  EF78  F000         	goto	u2548
  3050  0000EE                     u2530:
  3051  0000EE  6A4D               	clrf	??_checkbuttons^0,c
  3052  0000F0                     u2548:
  3053  0000F0  0E06               	movlw	6
  3054  0000F2  6E4E               	movwf	(??_checkbuttons+1)^0,c
  3055  0000F4                     u2555:
  3056  0000F4  90D8               	bcf	status,0,c
  3057  0000F6  364D               	rlcf	??_checkbuttons^0,f,c
  3058  0000F8  2E4E               	decfsz	(??_checkbuttons+1)^0,f,c
  3059  0000FA  EF7A  F000         	goto	u2555
  3060  0000FE  504D               	movf	??_checkbuttons^0,w,c
  3061  000100  1230               	iorwf	(_gConPollPacket+1)^0,f,c	;volatile
  3062  000102                     
  3063                           ;button.c: 49:         gConPollPacket[6] |= (!PORTCbits.RC5) ? 0x80 : 0x00;
  3064  000102  AACC               	btfss	204,5,c	;volatile
  3065  000104  EF86  F000         	goto	u2561
  3066  000108  EF88  F000         	goto	u2560
  3067  00010C                     u2561:
  3068  00010C  EF8F  F000         	goto	l4171
  3069  000110                     u2560:
  3070  000110  0E00               	movlw	0
  3071  000112  0100               	movlb	0	; () banked
  3072  000114  6FD4               	movwf	(_checkbuttons$2330+1)& (0+255),b
  3073  000116  0E00               	movlw	0
  3074  000118  6FD3               	movwf	_checkbuttons$2330& (0+255),b
  3075  00011A  EF94  F000         	goto	l4173
  3076  00011E                     l4171:
  3077  00011E  0E00               	movlw	0
  3078  000120  0100               	movlb	0	; () banked
  3079  000122  6FD4               	movwf	(_checkbuttons$2330+1)& (0+255),b
  3080  000124  0E80               	movlw	128
  3081  000126  6FD3               	movwf	_checkbuttons$2330& (0+255),b
  3082  000128                     l4173:
  3083                           
  3084                           ; BSR set to: 0
  3085  000128  51D3               	movf	_checkbuttons$2330& (0+255),w,b
  3086  00012A  1235               	iorwf	(_gConPollPacket+6)^0,f,c	;volatile
  3087  00012C                     
  3088                           ; BSR set to: 0
  3089                           ;button.c: 51:         gConPollPacket[1] |= !PORTCbits.RC2 << 5;
  3090  00012C  A4CC               	btfss	204,2,c	;volatile
  3091  00012E  EF9B  F000         	goto	u2571
  3092  000132  EF9F  F000         	goto	u2570
  3093  000136                     u2571:
  3094  000136  6A4D               	clrf	??_checkbuttons^0,c
  3095  000138  2A4D               	incf	??_checkbuttons^0,f,c
  3096  00013A  EFA0  F000         	goto	u2588
  3097  00013E                     u2570:
  3098  00013E  6A4D               	clrf	??_checkbuttons^0,c
  3099  000140                     u2588:
  3100  000140  0E05               	movlw	5
  3101  000142  6E4E               	movwf	(??_checkbuttons+1)^0,c
  3102  000144                     u2595:
  3103  000144  90D8               	bcf	status,0,c
  3104  000146  364D               	rlcf	??_checkbuttons^0,f,c
  3105  000148  2E4E               	decfsz	(??_checkbuttons+1)^0,f,c
  3106  00014A  EFA2  F000         	goto	u2595
  3107  00014E  504D               	movf	??_checkbuttons^0,w,c
  3108  000150  1230               	iorwf	(_gConPollPacket+1)^0,f,c	;volatile
  3109  000152                     
  3110                           ;button.c: 52:         gConPollPacket[7] |= (!PORTCbits.RC2) ? 0x80 : 0x00;
  3111  000152  A4CC               	btfss	204,2,c	;volatile
  3112  000154  EFAE  F000         	goto	u2601
  3113  000158  EFB0  F000         	goto	u2600
  3114  00015C                     u2601:
  3115  00015C  EFB7  F000         	goto	l4181
  3116  000160                     u2600:
  3117  000160  0E00               	movlw	0
  3118  000162  0100               	movlb	0	; () banked
  3119  000164  6FD6               	movwf	(_checkbuttons$2331+1)& (0+255),b
  3120  000166  0E00               	movlw	0
  3121  000168  6FD5               	movwf	_checkbuttons$2331& (0+255),b
  3122  00016A  EFBC  F000         	goto	l4183
  3123  00016E                     l4181:
  3124  00016E  0E00               	movlw	0
  3125  000170  0100               	movlb	0	; () banked
  3126  000172  6FD6               	movwf	(_checkbuttons$2331+1)& (0+255),b
  3127  000174  0E80               	movlw	128
  3128  000176  6FD5               	movwf	_checkbuttons$2331& (0+255),b
  3129  000178                     l4183:
  3130                           
  3131                           ; BSR set to: 0
  3132  000178  51D5               	movf	_checkbuttons$2331& (0+255),w,b
  3133  00017A  1236               	iorwf	(_gConPollPacket+7)^0,f,c	;volatile
  3134  00017C                     
  3135                           ; BSR set to: 0
  3136                           ;button.c: 55:         gConPollPacket[1] |= !PORTBbits.RB5 << 4;
  3137  00017C  AACB               	btfss	203,5,c	;volatile
  3138  00017E  EFC3  F000         	goto	u2611
  3139  000182  EFC7  F000         	goto	u2610
  3140  000186                     u2611:
  3141  000186  6A4D               	clrf	??_checkbuttons^0,c
  3142  000188  2A4D               	incf	??_checkbuttons^0,f,c
  3143  00018A  EFC8  F000         	goto	u2628
  3144  00018E                     u2610:
  3145  00018E  6A4D               	clrf	??_checkbuttons^0,c
  3146  000190                     u2628:
  3147  000190  384D               	swapf	??_checkbuttons^0,w,c
  3148  000192  0BF0               	andlw	240
  3149  000194  1230               	iorwf	(_gConPollPacket+1)^0,f,c	;volatile
  3150  000196                     
  3151                           ;button.c: 56:         gConPollPacket[1] |= !PORTCbits.RC0 << 4;
  3152  000196  A0CC               	btfss	204,0,c	;volatile
  3153  000198  EFD0  F000         	goto	u2631
  3154  00019C  EFD4  F000         	goto	u2630
  3155  0001A0                     u2631:
  3156  0001A0  6A4D               	clrf	??_checkbuttons^0,c
  3157  0001A2  2A4D               	incf	??_checkbuttons^0,f,c
  3158  0001A4  EFD5  F000         	goto	u2648
  3159  0001A8                     u2630:
  3160  0001A8  6A4D               	clrf	??_checkbuttons^0,c
  3161  0001AA                     u2648:
  3162  0001AA  384D               	swapf	??_checkbuttons^0,w,c
  3163  0001AC  0BF0               	andlw	240
  3164  0001AE  1230               	iorwf	(_gConPollPacket+1)^0,f,c	;volatile
  3165                           
  3166                           ;button.c: 57:     }
  3167  0001B0  EF04  F002         	goto	l4259
  3168  0001B4                     l4189:
  3169                           
  3170                           ; BSR set to: 7
  3171  0001B4  05FE               	decf	254,w,b
  3172  0001B6  A4D8               	btfss	status,2,c
  3173  0001B8  EFE0  F000         	goto	u2651
  3174  0001BC  EFE2  F000         	goto	u2650
  3175  0001C0                     u2651:
  3176  0001C0  EF41  F001         	goto	l4213
  3177  0001C4                     u2650:
  3178  0001C4                     
  3179                           ; BSR set to: 7
  3180                           ;button.c: 59:     {;button.c: 61:         gConPollPacket[1] |= !PORTCbits.RC5 << 6;
  3181  0001C4  AACC               	btfss	204,5,c	;volatile
  3182  0001C6  EFE7  F000         	goto	u2661
  3183  0001CA  EFEB  F000         	goto	u2660
  3184  0001CE                     u2661:
  3185  0001CE  6A4D               	clrf	??_checkbuttons^0,c
  3186  0001D0  2A4D               	incf	??_checkbuttons^0,f,c
  3187  0001D2  EFEC  F000         	goto	u2678
  3188  0001D6                     u2660:
  3189  0001D6  6A4D               	clrf	??_checkbuttons^0,c
  3190  0001D8                     u2678:
  3191  0001D8  0E06               	movlw	6
  3192  0001DA  6E4E               	movwf	(??_checkbuttons+1)^0,c
  3193  0001DC                     u2685:
  3194  0001DC  90D8               	bcf	status,0,c
  3195  0001DE  364D               	rlcf	??_checkbuttons^0,f,c
  3196  0001E0  2E4E               	decfsz	(??_checkbuttons+1)^0,f,c
  3197  0001E2  EFEE  F000         	goto	u2685
  3198  0001E6  504D               	movf	??_checkbuttons^0,w,c
  3199  0001E8  1230               	iorwf	(_gConPollPacket+1)^0,f,c	;volatile
  3200  0001EA                     
  3201                           ;button.c: 62:         gConPollPacket[6] |= (!PORTCbits.RC5) ? 0x80 : 0x00;
  3202  0001EA  AACC               	btfss	204,5,c	;volatile
  3203  0001EC  EFFA  F000         	goto	u2691
  3204  0001F0  EFFC  F000         	goto	u2690
  3205  0001F4                     u2691:
  3206  0001F4  EF03  F001         	goto	l4197
  3207  0001F8                     u2690:
  3208  0001F8  0E00               	movlw	0
  3209  0001FA  0100               	movlb	0	; () banked
  3210  0001FC  6FD8               	movwf	(_checkbuttons$2332+1)& (0+255),b
  3211  0001FE  0E00               	movlw	0
  3212  000200  6FD7               	movwf	_checkbuttons$2332& (0+255),b
  3213  000202  EF08  F001         	goto	l4199
  3214  000206                     l4197:
  3215  000206  0E00               	movlw	0
  3216  000208  0100               	movlb	0	; () banked
  3217  00020A  6FD8               	movwf	(_checkbuttons$2332+1)& (0+255),b
  3218  00020C  0E80               	movlw	128
  3219  00020E  6FD7               	movwf	_checkbuttons$2332& (0+255),b
  3220  000210                     l4199:
  3221                           
  3222                           ; BSR set to: 0
  3223  000210  51D7               	movf	_checkbuttons$2332& (0+255),w,b
  3224  000212  1235               	iorwf	(_gConPollPacket+6)^0,f,c	;volatile
  3225  000214                     
  3226                           ; BSR set to: 0
  3227                           ;button.c: 65:         gConPollPacket[1] |= !PORTCbits.RC2 << 5;
  3228  000214  A4CC               	btfss	204,2,c	;volatile
  3229  000216  EF0F  F001         	goto	u2701
  3230  00021A  EF13  F001         	goto	u2700
  3231  00021E                     u2701:
  3232  00021E  6A4D               	clrf	??_checkbuttons^0,c
  3233  000220  2A4D               	incf	??_checkbuttons^0,f,c
  3234  000222  EF14  F001         	goto	u2718
  3235  000226                     u2700:
  3236  000226  6A4D               	clrf	??_checkbuttons^0,c
  3237  000228                     u2718:
  3238  000228  0E05               	movlw	5
  3239  00022A  6E4E               	movwf	(??_checkbuttons+1)^0,c
  3240  00022C                     u2725:
  3241  00022C  90D8               	bcf	status,0,c
  3242  00022E  364D               	rlcf	??_checkbuttons^0,f,c
  3243  000230  2E4E               	decfsz	(??_checkbuttons+1)^0,f,c
  3244  000232  EF16  F001         	goto	u2725
  3245  000236  504D               	movf	??_checkbuttons^0,w,c
  3246  000238  1230               	iorwf	(_gConPollPacket+1)^0,f,c	;volatile
  3247  00023A                     
  3248                           ;button.c: 66:         gConPollPacket[7] |= (!PORTCbits.RC0) ? 0x80 : 0x00;
  3249  00023A  A0CC               	btfss	204,0,c	;volatile
  3250  00023C  EF22  F001         	goto	u2731
  3251  000240  EF24  F001         	goto	u2730
  3252  000244                     u2731:
  3253  000244  EF2B  F001         	goto	l4207
  3254  000248                     u2730:
  3255  000248  0E00               	movlw	0
  3256  00024A  0100               	movlb	0	; () banked
  3257  00024C  6FDA               	movwf	(_checkbuttons$2333+1)& (0+255),b
  3258  00024E  0E00               	movlw	0
  3259  000250  6FD9               	movwf	_checkbuttons$2333& (0+255),b
  3260  000252  EF30  F001         	goto	l4209
  3261  000256                     l4207:
  3262  000256  0E00               	movlw	0
  3263  000258  0100               	movlb	0	; () banked
  3264  00025A  6FDA               	movwf	(_checkbuttons$2333+1)& (0+255),b
  3265  00025C  0E80               	movlw	128
  3266  00025E  6FD9               	movwf	_checkbuttons$2333& (0+255),b
  3267  000260                     l4209:
  3268                           
  3269                           ; BSR set to: 0
  3270  000260  51D9               	movf	_checkbuttons$2333& (0+255),w,b
  3271  000262  1236               	iorwf	(_gConPollPacket+7)^0,f,c	;volatile
  3272  000264                     
  3273                           ; BSR set to: 0
  3274                           ;button.c: 69:         gConPollPacket[1] |= !PORTBbits.RB5 << 4;
  3275  000264  AACB               	btfss	203,5,c	;volatile
  3276  000266  EF37  F001         	goto	u2741
  3277  00026A  EF3B  F001         	goto	u2740
  3278  00026E                     u2741:
  3279  00026E  6A4D               	clrf	??_checkbuttons^0,c
  3280  000270  2A4D               	incf	??_checkbuttons^0,f,c
  3281  000272  EF3C  F001         	goto	u2758
  3282  000276                     u2740:
  3283  000276  6A4D               	clrf	??_checkbuttons^0,c
  3284  000278                     u2758:
  3285  000278  384D               	swapf	??_checkbuttons^0,w,c
  3286  00027A  0BF0               	andlw	240
  3287  00027C  1230               	iorwf	(_gConPollPacket+1)^0,f,c	;volatile
  3288                           
  3289                           ;button.c: 70:     }
  3290  00027E  EF04  F002         	goto	l4259
  3291  000282                     l4213:
  3292                           
  3293                           ; BSR set to: 7
  3294  000282  0E02               	movlw	2
  3295  000284  19FE               	xorwf	254,w,b
  3296  000286  A4D8               	btfss	status,2,c
  3297  000288  EF48  F001         	goto	u2761
  3298  00028C  EF4A  F001         	goto	u2760
  3299  000290                     u2761:
  3300  000290  EFA9  F001         	goto	l4237
  3301  000294                     u2760:
  3302  000294                     
  3303                           ; BSR set to: 7
  3304                           ;button.c: 72:     {;button.c: 74:         gConPollPacket[1] |= !PORTCbits.RC5 << 6;
  3305  000294  AACC               	btfss	204,5,c	;volatile
  3306  000296  EF4F  F001         	goto	u2771
  3307  00029A  EF53  F001         	goto	u2770
  3308  00029E                     u2771:
  3309  00029E  6A4D               	clrf	??_checkbuttons^0,c
  3310  0002A0  2A4D               	incf	??_checkbuttons^0,f,c
  3311  0002A2  EF54  F001         	goto	u2788
  3312  0002A6                     u2770:
  3313  0002A6  6A4D               	clrf	??_checkbuttons^0,c
  3314  0002A8                     u2788:
  3315  0002A8  0E06               	movlw	6
  3316  0002AA  6E4E               	movwf	(??_checkbuttons+1)^0,c
  3317  0002AC                     u2795:
  3318  0002AC  90D8               	bcf	status,0,c
  3319  0002AE  364D               	rlcf	??_checkbuttons^0,f,c
  3320  0002B0  2E4E               	decfsz	(??_checkbuttons+1)^0,f,c
  3321  0002B2  EF56  F001         	goto	u2795
  3322  0002B6  504D               	movf	??_checkbuttons^0,w,c
  3323  0002B8  1230               	iorwf	(_gConPollPacket+1)^0,f,c	;volatile
  3324  0002BA                     
  3325                           ;button.c: 75:         gConPollPacket[6] |= (!PORTBbits.RB5) ? 0x80 : 0x00;
  3326  0002BA  AACB               	btfss	203,5,c	;volatile
  3327  0002BC  EF62  F001         	goto	u2801
  3328  0002C0  EF64  F001         	goto	u2800
  3329  0002C4                     u2801:
  3330  0002C4  EF6B  F001         	goto	l4221
  3331  0002C8                     u2800:
  3332  0002C8  0E00               	movlw	0
  3333  0002CA  0100               	movlb	0	; () banked
  3334  0002CC  6FDC               	movwf	(_checkbuttons$2334+1)& (0+255),b
  3335  0002CE  0E00               	movlw	0
  3336  0002D0  6FDB               	movwf	_checkbuttons$2334& (0+255),b
  3337  0002D2  EF70  F001         	goto	l4223
  3338  0002D6                     l4221:
  3339  0002D6  0E00               	movlw	0
  3340  0002D8  0100               	movlb	0	; () banked
  3341  0002DA  6FDC               	movwf	(_checkbuttons$2334+1)& (0+255),b
  3342  0002DC  0E80               	movlw	128
  3343  0002DE  6FDB               	movwf	_checkbuttons$2334& (0+255),b
  3344  0002E0                     l4223:
  3345                           
  3346                           ; BSR set to: 0
  3347  0002E0  51DB               	movf	_checkbuttons$2334& (0+255),w,b
  3348  0002E2  1235               	iorwf	(_gConPollPacket+6)^0,f,c	;volatile
  3349  0002E4                     
  3350                           ; BSR set to: 0
  3351                           ;button.c: 78:         gConPollPacket[1] |= !PORTCbits.RC2 << 5;
  3352  0002E4  A4CC               	btfss	204,2,c	;volatile
  3353  0002E6  EF77  F001         	goto	u2811
  3354  0002EA  EF7B  F001         	goto	u2810
  3355  0002EE                     u2811:
  3356  0002EE  6A4D               	clrf	??_checkbuttons^0,c
  3357  0002F0  2A4D               	incf	??_checkbuttons^0,f,c
  3358  0002F2  EF7C  F001         	goto	u2828
  3359  0002F6                     u2810:
  3360  0002F6  6A4D               	clrf	??_checkbuttons^0,c
  3361  0002F8                     u2828:
  3362  0002F8  0E05               	movlw	5
  3363  0002FA  6E4E               	movwf	(??_checkbuttons+1)^0,c
  3364  0002FC                     u2835:
  3365  0002FC  90D8               	bcf	status,0,c
  3366  0002FE  364D               	rlcf	??_checkbuttons^0,f,c
  3367  000300  2E4E               	decfsz	(??_checkbuttons+1)^0,f,c
  3368  000302  EF7E  F001         	goto	u2835
  3369  000306  504D               	movf	??_checkbuttons^0,w,c
  3370  000308  1230               	iorwf	(_gConPollPacket+1)^0,f,c	;volatile
  3371  00030A                     
  3372                           ;button.c: 79:         gConPollPacket[7] |= (!PORTCbits.RC2) ? 0x80 : 0x00;
  3373  00030A  A4CC               	btfss	204,2,c	;volatile
  3374  00030C  EF8A  F001         	goto	u2841
  3375  000310  EF8C  F001         	goto	u2840
  3376  000314                     u2841:
  3377  000314  EF93  F001         	goto	l4231
  3378  000318                     u2840:
  3379  000318  0E00               	movlw	0
  3380  00031A  0100               	movlb	0	; () banked
  3381  00031C  6FDE               	movwf	(_checkbuttons$2335+1)& (0+255),b
  3382  00031E  0E00               	movlw	0
  3383  000320  6FDD               	movwf	_checkbuttons$2335& (0+255),b
  3384  000322  EF98  F001         	goto	l4233
  3385  000326                     l4231:
  3386  000326  0E00               	movlw	0
  3387  000328  0100               	movlb	0	; () banked
  3388  00032A  6FDE               	movwf	(_checkbuttons$2335+1)& (0+255),b
  3389  00032C  0E80               	movlw	128
  3390  00032E  6FDD               	movwf	_checkbuttons$2335& (0+255),b
  3391  000330                     l4233:
  3392                           
  3393                           ; BSR set to: 0
  3394  000330  51DD               	movf	_checkbuttons$2335& (0+255),w,b
  3395  000332  1236               	iorwf	(_gConPollPacket+7)^0,f,c	;volatile
  3396  000334                     
  3397                           ; BSR set to: 0
  3398                           ;button.c: 82:         gConPollPacket[1] |= !PORTCbits.RC0 << 4;
  3399  000334  A0CC               	btfss	204,0,c	;volatile
  3400  000336  EF9F  F001         	goto	u2851
  3401  00033A  EFA3  F001         	goto	u2850
  3402  00033E                     u2851:
  3403  00033E  6A4D               	clrf	??_checkbuttons^0,c
  3404  000340  2A4D               	incf	??_checkbuttons^0,f,c
  3405  000342  EFA4  F001         	goto	u2868
  3406  000346                     u2850:
  3407  000346  6A4D               	clrf	??_checkbuttons^0,c
  3408  000348                     u2868:
  3409  000348  384D               	swapf	??_checkbuttons^0,w,c
  3410  00034A  0BF0               	andlw	240
  3411  00034C  1230               	iorwf	(_gConPollPacket+1)^0,f,c	;volatile
  3412                           
  3413                           ;button.c: 83:     }
  3414  00034E  EF04  F002         	goto	l4259
  3415  000352                     l4237:
  3416                           
  3417                           ; BSR set to: 7
  3418  000352  0E03               	movlw	3
  3419  000354  19FE               	xorwf	254,w,b
  3420  000356  A4D8               	btfss	status,2,c
  3421  000358  EFB0  F001         	goto	u2871
  3422  00035C  EFB2  F001         	goto	u2870
  3423  000360                     u2871:
  3424  000360  EF04  F002         	goto	l1497
  3425  000364                     u2870:
  3426  000364                     
  3427                           ; BSR set to: 7
  3428                           ;button.c: 85:     {;button.c: 87:         gConPollPacket[1] |= !PORTCbits.RC5 << 6;
  3429  000364  AACC               	btfss	204,5,c	;volatile
  3430  000366  EFB7  F001         	goto	u2881
  3431  00036A  EFBB  F001         	goto	u2880
  3432  00036E                     u2881:
  3433  00036E  6A4D               	clrf	??_checkbuttons^0,c
  3434  000370  2A4D               	incf	??_checkbuttons^0,f,c
  3435  000372  EFBC  F001         	goto	u2898
  3436  000376                     u2880:
  3437  000376  6A4D               	clrf	??_checkbuttons^0,c
  3438  000378                     u2898:
  3439  000378  0E06               	movlw	6
  3440  00037A  6E4E               	movwf	(??_checkbuttons+1)^0,c
  3441  00037C                     u2905:
  3442  00037C  90D8               	bcf	status,0,c
  3443  00037E  364D               	rlcf	??_checkbuttons^0,f,c
  3444  000380  2E4E               	decfsz	(??_checkbuttons+1)^0,f,c
  3445  000382  EFBE  F001         	goto	u2905
  3446  000386  504D               	movf	??_checkbuttons^0,w,c
  3447  000388  1230               	iorwf	(_gConPollPacket+1)^0,f,c	;volatile
  3448  00038A                     
  3449                           ;button.c: 88:         gConPollPacket[6] |= (!PORTBbits.RB5) ? 0x80 : 0x00;
  3450  00038A  AACB               	btfss	203,5,c	;volatile
  3451  00038C  EFCA  F001         	goto	u2911
  3452  000390  EFCC  F001         	goto	u2910
  3453  000394                     u2911:
  3454  000394  EFD3  F001         	goto	l4245
  3455  000398                     u2910:
  3456  000398  0E00               	movlw	0
  3457  00039A  0100               	movlb	0	; () banked
  3458  00039C  6FE0               	movwf	(_checkbuttons$2336+1)& (0+255),b
  3459  00039E  0E00               	movlw	0
  3460  0003A0  6FDF               	movwf	_checkbuttons$2336& (0+255),b
  3461  0003A2  EFD8  F001         	goto	l4247
  3462  0003A6                     l4245:
  3463  0003A6  0E00               	movlw	0
  3464  0003A8  0100               	movlb	0	; () banked
  3465  0003AA  6FE0               	movwf	(_checkbuttons$2336+1)& (0+255),b
  3466  0003AC  0E80               	movlw	128
  3467  0003AE  6FDF               	movwf	_checkbuttons$2336& (0+255),b
  3468  0003B0                     l4247:
  3469                           
  3470                           ; BSR set to: 0
  3471  0003B0  51DF               	movf	_checkbuttons$2336& (0+255),w,b
  3472  0003B2  1235               	iorwf	(_gConPollPacket+6)^0,f,c	;volatile
  3473  0003B4                     
  3474                           ; BSR set to: 0
  3475                           ;button.c: 91:         gConPollPacket[1] |= !PORTCbits.RC2 << 5;
  3476  0003B4  A4CC               	btfss	204,2,c	;volatile
  3477  0003B6  EFDF  F001         	goto	u2921
  3478  0003BA  EFE3  F001         	goto	u2920
  3479  0003BE                     u2921:
  3480  0003BE  6A4D               	clrf	??_checkbuttons^0,c
  3481  0003C0  2A4D               	incf	??_checkbuttons^0,f,c
  3482  0003C2  EFE4  F001         	goto	u2938
  3483  0003C6                     u2920:
  3484  0003C6  6A4D               	clrf	??_checkbuttons^0,c
  3485  0003C8                     u2938:
  3486  0003C8  0E05               	movlw	5
  3487  0003CA  6E4E               	movwf	(??_checkbuttons+1)^0,c
  3488  0003CC                     u2945:
  3489  0003CC  90D8               	bcf	status,0,c
  3490  0003CE  364D               	rlcf	??_checkbuttons^0,f,c
  3491  0003D0  2E4E               	decfsz	(??_checkbuttons+1)^0,f,c
  3492  0003D2  EFE6  F001         	goto	u2945
  3493  0003D6  504D               	movf	??_checkbuttons^0,w,c
  3494  0003D8  1230               	iorwf	(_gConPollPacket+1)^0,f,c	;volatile
  3495  0003DA                     
  3496                           ;button.c: 92:         gConPollPacket[7] |= (!PORTCbits.RC0) ? 0x80 : 0x00;
  3497  0003DA  A0CC               	btfss	204,0,c	;volatile
  3498  0003DC  EFF2  F001         	goto	u2951
  3499  0003E0  EFF4  F001         	goto	u2950
  3500  0003E4                     u2951:
  3501  0003E4  EFFB  F001         	goto	l4255
  3502  0003E8                     u2950:
  3503  0003E8  0E00               	movlw	0
  3504  0003EA  0100               	movlb	0	; () banked
  3505  0003EC  6FE2               	movwf	(_checkbuttons$2337+1)& (0+255),b
  3506  0003EE  0E00               	movlw	0
  3507  0003F0  6FE1               	movwf	_checkbuttons$2337& (0+255),b
  3508  0003F2  EF00  F002         	goto	l4257
  3509  0003F6                     l4255:
  3510  0003F6  0E00               	movlw	0
  3511  0003F8  0100               	movlb	0	; () banked
  3512  0003FA  6FE2               	movwf	(_checkbuttons$2337+1)& (0+255),b
  3513  0003FC  0E80               	movlw	128
  3514  0003FE  6FE1               	movwf	_checkbuttons$2337& (0+255),b
  3515  000400                     l4257:
  3516                           
  3517                           ; BSR set to: 0
  3518  000400  51E1               	movf	_checkbuttons$2337& (0+255),w,b
  3519  000402  1236               	iorwf	(_gConPollPacket+7)^0,f,c	;volatile
  3520  000404  EF04  F002         	goto	l4259
  3521  000408                     l1497:
  3522  000408                     l4259:
  3523                           
  3524                           ;button.c: 95:     gConPollPacket[1] |= !PORTCbits.RC6 << 3;
  3525  000408  ACCC               	btfss	204,6,c	;volatile
  3526  00040A  EF09  F002         	goto	u2961
  3527  00040E  EF0D  F002         	goto	u2960
  3528  000412                     u2961:
  3529  000412  6A4D               	clrf	??_checkbuttons^0,c
  3530  000414  2A4D               	incf	??_checkbuttons^0,f,c
  3531  000416  EF0E  F002         	goto	u2978
  3532  00041A                     u2960:
  3533  00041A  6A4D               	clrf	??_checkbuttons^0,c
  3534  00041C                     u2978:
  3535  00041C  90D8               	bcf	status,0,c
  3536  00041E  364D               	rlcf	??_checkbuttons^0,f,c
  3537  000420  90D8               	bcf	status,0,c
  3538  000422  364D               	rlcf	??_checkbuttons^0,f,c
  3539  000424  90D8               	bcf	status,0,c
  3540  000426  344D               	rlcf	??_checkbuttons^0,w,c
  3541  000428  1230               	iorwf	(_gConPollPacket+1)^0,f,c	;volatile
  3542  00042A                     
  3543                           ;button.c: 96:     gConPollPacket[1] |= !PORTCbits.RC7 << 2;
  3544  00042A  AECC               	btfss	204,7,c	;volatile
  3545  00042C  EF1A  F002         	goto	u2981
  3546  000430  EF1E  F002         	goto	u2980
  3547  000434                     u2981:
  3548  000434  6A4D               	clrf	??_checkbuttons^0,c
  3549  000436  2A4D               	incf	??_checkbuttons^0,f,c
  3550  000438  EF1F  F002         	goto	u2998
  3551  00043C                     u2980:
  3552  00043C  6A4D               	clrf	??_checkbuttons^0,c
  3553  00043E                     u2998:
  3554  00043E  90D8               	bcf	status,0,c
  3555  000440  364D               	rlcf	??_checkbuttons^0,f,c
  3556  000442  90D8               	bcf	status,0,c
  3557  000444  344D               	rlcf	??_checkbuttons^0,w,c
  3558  000446  1230               	iorwf	(_gConPollPacket+1)^0,f,c	;volatile
  3559  000448                     
  3560                           ;button.c: 97:     gConPollPacket[1] |= !PORTBbits.RB0 << 1;
  3561  000448  A0CB               	btfss	203,0,c	;volatile
  3562  00044A  EF29  F002         	goto	u3001
  3563  00044E  EF2D  F002         	goto	u3000
  3564  000452                     u3001:
  3565  000452  6A4D               	clrf	??_checkbuttons^0,c
  3566  000454  2A4D               	incf	??_checkbuttons^0,f,c
  3567  000456  EF2E  F002         	goto	u3018
  3568  00045A                     u3000:
  3569  00045A  6A4D               	clrf	??_checkbuttons^0,c
  3570  00045C                     u3018:
  3571  00045C  90D8               	bcf	status,0,c
  3572  00045E  344D               	rlcf	??_checkbuttons^0,w,c
  3573  000460  1230               	iorwf	(_gConPollPacket+1)^0,f,c	;volatile
  3574  000462                     
  3575                           ;button.c: 98:     gConPollPacket[1] |= !PORTBbits.RB1;
  3576  000462  A2CB               	btfss	203,1,c	;volatile
  3577  000464  EF36  F002         	goto	u3021
  3578  000468  EF39  F002         	goto	u3020
  3579  00046C                     u3021:
  3580  00046C  0E01               	movlw	1
  3581  00046E  EF3A  F002         	goto	u3030
  3582  000472                     u3020:
  3583  000472  0E00               	movlw	0
  3584  000474                     u3030:
  3585  000474  1230               	iorwf	(_gConPollPacket+1)^0,f,c	;volatile
  3586  000476  0012               	return		;funcret
  3587  000478                     __end_of_checkbuttons:
  3588                           	callstack 0
  3589                           
  3590 ;; *************** function _calibratesticks *****************
  3591 ;; Defined at:
  3592 ;;		line 227 in file "joysticks.c"
  3593 ;; Parameters:    Size  Location     Type
  3594 ;;		None
  3595 ;; Auto vars:     Size  Location     Type
  3596 ;;		None
  3597 ;; Return value:  Size  Location     Type
  3598 ;;                  1    wreg      void 
  3599 ;; Registers used:
  3600 ;;		wreg, status,2, status,0
  3601 ;; Tracked objects:
  3602 ;;		On entry : 0/0
  3603 ;;		On exit  : 0/0
  3604 ;;		Unchanged: 0/0
  3605 ;; Data sizes:     COMRAM   BANK0   BANK1   BANK2   BANK3   BANK4   BANK5   BANK6   BANK7
  3606 ;;      Params:         0       0       0       0       0       0       0       0       0
  3607 ;;      Locals:         0       0       0       0       0       0       0       0       0
  3608 ;;      Temps:          2       0       0       0       0       0       0       0       0
  3609 ;;      Totals:         2       0       0       0       0       0       0       0       0
  3610 ;;Total ram usage:        2 bytes
  3611 ;; Hardware stack levels used: 1
  3612 ;; Hardware stack levels required when called: 2
  3613 ;; This function calls:
  3614 ;;		Nothing
  3615 ;; This function is called by:
  3616 ;;		_main
  3617 ;; This function uses a non-reentrant model
  3618 ;;
  3619                           
  3620                           	psect	text16
  3621  0007CA                     __ptext16:
  3622                           	callstack 0
  3623  0007CA                     _calibratesticks:
  3624                           	callstack 28
  3625  0007CA                     
  3626                           ;joysticks.c: 231:     if (!initiatedRead)
  3627  0007CA  5014               	movf	_initiatedRead@joysticks$F2177^0,w,c
  3628  0007CC  A4D8               	btfss	status,2,c
  3629  0007CE  EFEB  F003         	goto	u1371
  3630  0007D2  EFED  F003         	goto	u1370
  3631  0007D6                     u1371:
  3632  0007D6  EFF9  F003         	goto	l1347
  3633  0007DA                     u1370:
  3634  0007DA                     
  3635                           ;joysticks.c: 232:     {;joysticks.c: 233:         ADPCH = SX_A;
  3636  0007DA  0E02               	movlw	2
  3637  0007DC  013E               	movlb	62	; () banked
  3638  0007DE  6FF1               	movwf	241,b	;volatile
  3639  0007E0                     
  3640                           ; BSR set to: 62
  3641                           ;joysticks.c: 234:         ADCON0bits.ADGO = 1;
  3642  0007E0  81F8               	bsf	248,0,b	;volatile
  3643                           
  3644                           ;joysticks.c: 235:         stickIdx = 0;
  3645  0007E2  0E00               	movlw	0
  3646  0007E4  6E15               	movwf	_stickIdx@joysticks$F2176^0,c
  3647                           
  3648                           ;joysticks.c: 236:         clearRead = 0;
  3649  0007E6  0E00               	movlw	0
  3650  0007E8  6E13               	movwf	_clearRead@joysticks$F2178^0,c
  3651                           
  3652                           ;joysticks.c: 237:         initiatedRead = 1;
  3653  0007EA  0E01               	movlw	1
  3654  0007EC  6E14               	movwf	_initiatedRead@joysticks$F2177^0,c
  3655                           
  3656                           ;joysticks.c: 238:     }
  3657  0007EE  EF2A  F005         	goto	l1357
  3658  0007F2                     l1347:
  3659                           
  3660                           ;joysticks.c: 240:     {;joysticks.c: 243:         if (!ADCON0bits.ADGO)
  3661  0007F2  013E               	movlb	62	; () banked
  3662  0007F4  B1F8               	btfsc	248,0,b	;volatile
  3663  0007F6  EFFF  F003         	goto	u1381
  3664  0007FA  EF01  F004         	goto	u1380
  3665  0007FE                     u1381:
  3666  0007FE  EF2A  F005         	goto	l1357
  3667  000802                     u1380:
  3668  000802                     
  3669                           ; BSR set to: 62
  3670                           ;joysticks.c: 244:         {;joysticks.c: 245:             if (clearRead)
  3671  000802  5013               	movf	_clearRead@joysticks$F2178^0,w,c
  3672  000804  B4D8               	btfsc	status,2,c
  3673  000806  EF07  F004         	goto	u1391
  3674  00080A  EF09  F004         	goto	u1390
  3675  00080E                     u1391:
  3676  00080E  EF42  F004         	goto	l3601
  3677  000812                     u1390:
  3678  000812  EF1F  F004         	goto	l3593
  3679  000816                     l3581:
  3680                           
  3681                           ; BSR set to: 62
  3682                           ;joysticks.c: 251:                         ADPCH = SY_A;
  3683  000816  0E03               	movlw	3
  3684  000818  6FF1               	movwf	241,b	;volatile
  3685                           
  3686                           ;joysticks.c: 252:                         break;
  3687  00081A  EF3C  F004         	goto	l3595
  3688  00081E                     l3583:
  3689                           
  3690                           ; BSR set to: 62
  3691                           ;joysticks.c: 254:                         ADPCH = CX_A;
  3692  00081E  0E00               	movlw	0
  3693  000820  6FF1               	movwf	241,b	;volatile
  3694                           
  3695                           ;joysticks.c: 255:                         break;
  3696  000822  EF3C  F004         	goto	l3595
  3697  000826                     l3585:
  3698                           
  3699                           ; BSR set to: 62
  3700                           ;joysticks.c: 257:                         ADPCH = CY_A;
  3701  000826  0E01               	movlw	1
  3702  000828  6FF1               	movwf	241,b	;volatile
  3703                           
  3704                           ;joysticks.c: 258:                         break;
  3705  00082A  EF3C  F004         	goto	l3595
  3706  00082E                     l3587:
  3707                           
  3708                           ; BSR set to: 62
  3709                           ;joysticks.c: 260:                         initiatedRead = 0;
  3710  00082E  0E00               	movlw	0
  3711  000830  6E14               	movwf	_initiatedRead@joysticks$F2177^0,c
  3712                           
  3713                           ;joysticks.c: 261:                         clearRead = 0;
  3714  000832  0E00               	movlw	0
  3715  000834  6E13               	movwf	_clearRead@joysticks$F2178^0,c
  3716  000836  EF2A  F005         	goto	l1357
  3717  00083A                     l3589:
  3718                           
  3719                           ; BSR set to: 62
  3720                           ;joysticks.c: 262:                         return;
  3721  00083A  EF2A  F005         	goto	l1357
  3722  00083E                     l3593:
  3723                           
  3724                           ; BSR set to: 62
  3725  00083E  5015               	movf	_stickIdx@joysticks$F2176^0,w,c
  3726  000840  6E4D               	movwf	??_calibratesticks^0,c
  3727  000842  6A4E               	clrf	(??_calibratesticks+1)^0,c
  3728                           
  3729                           ; Switch on 2 bytes has been partitioned into a top level switch of size 1, and 1 sub-sw
      +                          itches
  3730                           ; Switch size 1, requested type "simple"
  3731                           ; Number of cases is 1, Range of values is 0 to 0
  3732                           ; switch strategies available:
  3733                           ; Name         Instructions Cycles
  3734                           ; simple_byte            4     3 (average)
  3735                           ;	Chosen strategy is simple_byte
  3736  000844  504E               	movf	(??_calibratesticks+1)^0,w,c
  3737  000846  0A00               	xorlw	0	; case 0
  3738  000848  B4D8               	btfsc	status,2,c
  3739  00084A  EF29  F004         	goto	l4451
  3740  00084E  EF3C  F004         	goto	l3595
  3741  000852                     l4451:
  3742                           
  3743                           ; BSR set to: 62
  3744                           ; Switch size 1, requested type "simple"
  3745                           ; Number of cases is 4, Range of values is 0 to 3
  3746                           ; switch strategies available:
  3747                           ; Name         Instructions Cycles
  3748                           ; simple_byte           13     7 (average)
  3749                           ;	Chosen strategy is simple_byte
  3750  000852  504D               	movf	??_calibratesticks^0,w,c
  3751  000854  0A00               	xorlw	0	; case 0
  3752  000856  B4D8               	btfsc	status,2,c
  3753  000858  EF0B  F004         	goto	l3581
  3754  00085C  0A01               	xorlw	1	; case 1
  3755  00085E  B4D8               	btfsc	status,2,c
  3756  000860  EF0F  F004         	goto	l3583
  3757  000864  0A03               	xorlw	3	; case 2
  3758  000866  B4D8               	btfsc	status,2,c
  3759  000868  EF13  F004         	goto	l3585
  3760  00086C  0A01               	xorlw	1	; case 3
  3761  00086E  B4D8               	btfsc	status,2,c
  3762  000870  EF17  F004         	goto	l3587
  3763  000874  EF3C  F004         	goto	l3595
  3764  000878                     l3595:
  3765                           
  3766                           ; BSR set to: 62
  3767                           ;joysticks.c: 266:                 stickIdx++;
  3768  000878  2A15               	incf	_stickIdx@joysticks$F2176^0,f,c
  3769  00087A                     
  3770                           ; BSR set to: 62
  3771                           ;joysticks.c: 267:                 clearRead = 0;
  3772  00087A  0E00               	movlw	0
  3773  00087C  6E13               	movwf	_clearRead@joysticks$F2178^0,c
  3774  00087E                     
  3775                           ; BSR set to: 62
  3776                           ;joysticks.c: 268:                 ADCON0bits.ADGO = 1;
  3777  00087E  81F8               	bsf	248,0,b	;volatile
  3778                           
  3779                           ;joysticks.c: 269:             }
  3780  000880  EF2A  F005         	goto	l1357
  3781  000884                     l3601:
  3782                           
  3783                           ; BSR set to: 62
  3784                           ;joysticks.c: 271:             {;joysticks.c: 272:                 clearRead = 1;
  3785  000884  0E01               	movlw	1
  3786  000886  6E13               	movwf	_clearRead@joysticks$F2178^0,c
  3787                           
  3788                           ;joysticks.c: 275:                 ADPCH = channel_VSS;
  3789  000888  0E3B               	movlw	59
  3790  00088A  6FF1               	movwf	241,b	;volatile
  3791  00088C                     
  3792                           ; BSR set to: 62
  3793                           ;joysticks.c: 276:                 ADCON0bits.ADGO = 1;
  3794  00088C  81F8               	bsf	248,0,b	;volatile
  3795  00088E                     
  3796                           ; BSR set to: 62
  3797                           ;joysticks.c: 280:                 adc_read = ((adc_result_t)((ADRESH << 8) + ADRESL)) >
      +                          > 3;
  3798  00088E  51EF               	movf	239,w,b	;volatile
  3799  000890  006F FBC0  F04D    	movff	16112,??_calibratesticks	;volatile
  3800  000896  6A4E               	clrf	(??_calibratesticks+1)^0,c
  3801  000898  C04D  F04E         	movff	??_calibratesticks,??_calibratesticks+1
  3802  00089C  6A4D               	clrf	??_calibratesticks^0,c
  3803  00089E  264D               	addwf	??_calibratesticks^0,f,c
  3804  0008A0  0E00               	movlw	0
  3805  0008A2  224E               	addwfc	(??_calibratesticks+1)^0,f,c
  3806  0008A4  90D8               	bcf	status,0,c
  3807  0008A6  324E               	rrcf	(??_calibratesticks+1)^0,f,c
  3808  0008A8  324D               	rrcf	??_calibratesticks^0,f,c
  3809  0008AA  90D8               	bcf	status,0,c
  3810  0008AC  324E               	rrcf	(??_calibratesticks+1)^0,f,c
  3811  0008AE  324D               	rrcf	??_calibratesticks^0,f,c
  3812  0008B0  90D8               	bcf	status,0,c
  3813  0008B2  324E               	rrcf	(??_calibratesticks+1)^0,f,c
  3814  0008B4  324D               	rrcf	??_calibratesticks^0,f,c
  3815  0008B6  C04D  F00B         	movff	??_calibratesticks,_adc_read
  3816  0008BA  C04E  F00C         	movff	??_calibratesticks+1,_adc_read+1
  3817                           
  3818                           ;joysticks.c: 284:                 switch (stickIdx)
  3819  0008BE  EF0D  F005         	goto	l3641
  3820  0008C2                     l3607:
  3821                           
  3822                           ; BSR set to: 62
  3823                           ;joysticks.c: 288:                         if (adc_read > SettingData.sx_high)
  3824  0008C2  500B               	movf	_adc_read^0,w,c
  3825  0008C4  0107               	movlb	7	; () banked
  3826  0008C6  5DDA               	subwf	218,w,b
  3827  0008C8  500C               	movf	(_adc_read+1)^0,w,c
  3828  0008CA  59DB               	subwfb	219,w,b
  3829  0008CC  B0D8               	btfsc	status,0,c
  3830  0008CE  EF6B  F004         	goto	u1401
  3831  0008D2  EF6D  F004         	goto	u1400
  3832  0008D6                     u1401:
  3833  0008D6  EF73  F004         	goto	l3611
  3834  0008DA                     u1400:
  3835  0008DA                     
  3836                           ; BSR set to: 7
  3837                           ;joysticks.c: 289:                         {;joysticks.c: 290:                          
      +                             SettingData.sx_high = adc_read;
  3838  0008DA  0060  F02C  F7DA   	movff	_adc_read,2010
  3839  0008E0  0060  F030  F7DB   	movff	_adc_read+1,2011
  3840  0008E6                     l3611:
  3841                           
  3842                           ; BSR set to: 7
  3843                           ;joysticks.c: 293:                         if (adc_read < SettingData.sx_low)
  3844  0008E6  51D6               	movf	214,w,b
  3845  0008E8  5C0B               	subwf	_adc_read^0,w,c
  3846  0008EA  51D7               	movf	215,w,b
  3847  0008EC  580C               	subwfb	(_adc_read+1)^0,w,c
  3848  0008EE  B0D8               	btfsc	status,0,c
  3849  0008F0  EF7C  F004         	goto	u1411
  3850  0008F4  EF7E  F004         	goto	u1410
  3851  0008F8                     u1411:
  3852  0008F8  EF84  F004         	goto	l1362
  3853  0008FC                     u1410:
  3854  0008FC                     
  3855                           ; BSR set to: 7
  3856                           ;joysticks.c: 294:                         {;joysticks.c: 295:                          
      +                             SettingData.sx_low = adc_read;
  3857  0008FC  0060  F02C  F7D6   	movff	_adc_read,2006
  3858  000902  0060  F030  F7D7   	movff	_adc_read+1,2007
  3859  000908                     l1362:
  3860                           
  3861                           ; BSR set to: 7
  3862                           ;joysticks.c: 298:                         SettingData.sx_center = adc_read;
  3863  000908  0060  F02C  F7D8   	movff	_adc_read,2008
  3864  00090E  0060  F030  F7D9   	movff	_adc_read+1,2009
  3865                           
  3866                           ;joysticks.c: 300:                         break;
  3867  000914  EF2A  F005         	goto	l1357
  3868  000918                     l3615:
  3869                           
  3870                           ; BSR set to: 62
  3871                           ;joysticks.c: 304:                         if (adc_read > SettingData.sy_high)
  3872  000918  500B               	movf	_adc_read^0,w,c
  3873  00091A  0107               	movlb	7	; () banked
  3874  00091C  5DE0               	subwf	224,w,b
  3875  00091E  500C               	movf	(_adc_read+1)^0,w,c
  3876  000920  59E1               	subwfb	225,w,b
  3877  000922  B0D8               	btfsc	status,0,c
  3878  000924  EF96  F004         	goto	u1421
  3879  000928  EF98  F004         	goto	u1420
  3880  00092C                     u1421:
  3881  00092C  EF9E  F004         	goto	l3619
  3882  000930                     u1420:
  3883  000930                     
  3884                           ; BSR set to: 7
  3885                           ;joysticks.c: 305:                         {;joysticks.c: 306:                          
      +                             SettingData.sy_high = adc_read;
  3886  000930  0060  F02C  F7E0   	movff	_adc_read,2016
  3887  000936  0060  F030  F7E1   	movff	_adc_read+1,2017
  3888  00093C                     l3619:
  3889                           
  3890                           ; BSR set to: 7
  3891                           ;joysticks.c: 309:                         if (adc_read < SettingData.sy_low)
  3892  00093C  51DC               	movf	220,w,b
  3893  00093E  5C0B               	subwf	_adc_read^0,w,c
  3894  000940  51DD               	movf	221,w,b
  3895  000942  580C               	subwfb	(_adc_read+1)^0,w,c
  3896  000944  B0D8               	btfsc	status,0,c
  3897  000946  EFA7  F004         	goto	u1431
  3898  00094A  EFA9  F004         	goto	u1430
  3899  00094E                     u1431:
  3900  00094E  EFAF  F004         	goto	l1366
  3901  000952                     u1430:
  3902  000952                     
  3903                           ; BSR set to: 7
  3904                           ;joysticks.c: 310:                         {;joysticks.c: 311:                          
      +                             SettingData.sy_low = adc_read;
  3905  000952  0060  F02C  F7DC   	movff	_adc_read,2012
  3906  000958  0060  F030  F7DD   	movff	_adc_read+1,2013
  3907  00095E                     l1366:
  3908                           
  3909                           ; BSR set to: 7
  3910                           ;joysticks.c: 314:                         SettingData.sy_center = adc_read;
  3911  00095E  0060  F02C  F7DE   	movff	_adc_read,2014
  3912  000964  0060  F030  F7DF   	movff	_adc_read+1,2015
  3913                           
  3914                           ;joysticks.c: 316:                         break;
  3915  00096A  EF2A  F005         	goto	l1357
  3916  00096E                     l3623:
  3917                           
  3918                           ; BSR set to: 62
  3919                           ;joysticks.c: 320:                         if (adc_read > SettingData.cx_high)
  3920  00096E  500B               	movf	_adc_read^0,w,c
  3921  000970  0107               	movlb	7	; () banked
  3922  000972  5DE6               	subwf	230,w,b
  3923  000974  500C               	movf	(_adc_read+1)^0,w,c
  3924  000976  59E7               	subwfb	231,w,b
  3925  000978  B0D8               	btfsc	status,0,c
  3926  00097A  EFC1  F004         	goto	u1441
  3927  00097E  EFC3  F004         	goto	u1440
  3928  000982                     u1441:
  3929  000982  EFC9  F004         	goto	l3627
  3930  000986                     u1440:
  3931  000986                     
  3932                           ; BSR set to: 7
  3933                           ;joysticks.c: 321:                         {;joysticks.c: 322:                          
      +                             SettingData.cx_high = adc_read;
  3934  000986  0060  F02C  F7E6   	movff	_adc_read,2022
  3935  00098C  0060  F030  F7E7   	movff	_adc_read+1,2023
  3936  000992                     l3627:
  3937                           
  3938                           ; BSR set to: 7
  3939                           ;joysticks.c: 325:                         if (adc_read < SettingData.cx_low)
  3940  000992  51E2               	movf	226,w,b
  3941  000994  5C0B               	subwf	_adc_read^0,w,c
  3942  000996  51E3               	movf	227,w,b
  3943  000998  580C               	subwfb	(_adc_read+1)^0,w,c
  3944  00099A  B0D8               	btfsc	status,0,c
  3945  00099C  EFD2  F004         	goto	u1451
  3946  0009A0  EFD4  F004         	goto	u1450
  3947  0009A4                     u1451:
  3948  0009A4  EFDA  F004         	goto	l1369
  3949  0009A8                     u1450:
  3950  0009A8                     
  3951                           ; BSR set to: 7
  3952                           ;joysticks.c: 326:                         {;joysticks.c: 327:                          
      +                             SettingData.cx_low = adc_read;
  3953  0009A8  0060  F02C  F7E2   	movff	_adc_read,2018
  3954  0009AE  0060  F030  F7E3   	movff	_adc_read+1,2019
  3955  0009B4                     l1369:
  3956                           
  3957                           ; BSR set to: 7
  3958                           ;joysticks.c: 330:                         SettingData.cx_center = adc_read;
  3959  0009B4  0060  F02C  F7E4   	movff	_adc_read,2020
  3960  0009BA  0060  F030  F7E5   	movff	_adc_read+1,2021
  3961                           
  3962                           ;joysticks.c: 332:                         break;
  3963  0009C0  EF2A  F005         	goto	l1357
  3964  0009C4                     l3631:
  3965                           
  3966                           ; BSR set to: 62
  3967                           ;joysticks.c: 336:                         if (adc_read > SettingData.cy_high)
  3968  0009C4  500B               	movf	_adc_read^0,w,c
  3969  0009C6  0107               	movlb	7	; () banked
  3970  0009C8  5DEC               	subwf	236,w,b
  3971  0009CA  500C               	movf	(_adc_read+1)^0,w,c
  3972  0009CC  59ED               	subwfb	237,w,b
  3973  0009CE  B0D8               	btfsc	status,0,c
  3974  0009D0  EFEC  F004         	goto	u1461
  3975  0009D4  EFEE  F004         	goto	u1460
  3976  0009D8                     u1461:
  3977  0009D8  EFF4  F004         	goto	l3635
  3978  0009DC                     u1460:
  3979  0009DC                     
  3980                           ; BSR set to: 7
  3981                           ;joysticks.c: 337:                         {;joysticks.c: 338:                          
      +                             SettingData.cy_high = adc_read;
  3982  0009DC  0060  F02C  F7EC   	movff	_adc_read,2028
  3983  0009E2  0060  F030  F7ED   	movff	_adc_read+1,2029
  3984  0009E8                     l3635:
  3985                           
  3986                           ; BSR set to: 7
  3987                           ;joysticks.c: 341:                         if (adc_read < SettingData.cy_low)
  3988  0009E8  51E8               	movf	232,w,b
  3989  0009EA  5C0B               	subwf	_adc_read^0,w,c
  3990  0009EC  51E9               	movf	233,w,b
  3991  0009EE  580C               	subwfb	(_adc_read+1)^0,w,c
  3992  0009F0  B0D8               	btfsc	status,0,c
  3993  0009F2  EFFD  F004         	goto	u1471
  3994  0009F6  EFFF  F004         	goto	u1470
  3995  0009FA                     u1471:
  3996  0009FA  EF05  F005         	goto	l1372
  3997  0009FE                     u1470:
  3998  0009FE                     
  3999                           ; BSR set to: 7
  4000                           ;joysticks.c: 342:                         {;joysticks.c: 343:                          
      +                             SettingData.cy_low = adc_read;
  4001  0009FE  0060  F02C  F7E8   	movff	_adc_read,2024
  4002  000A04  0060  F030  F7E9   	movff	_adc_read+1,2025
  4003  000A0A                     l1372:
  4004                           
  4005                           ; BSR set to: 7
  4006                           ;joysticks.c: 346:                         SettingData.cy_center = adc_read;
  4007  000A0A  0060  F02C  F7EA   	movff	_adc_read,2026
  4008  000A10  0060  F030  F7EB   	movff	_adc_read+1,2027
  4009                           
  4010                           ;joysticks.c: 348:                         break;
  4011  000A16  EF2A  F005         	goto	l1357
  4012  000A1A                     l3641:
  4013                           
  4014                           ; BSR set to: 62
  4015  000A1A  5015               	movf	_stickIdx@joysticks$F2176^0,w,c
  4016  000A1C  6E4D               	movwf	??_calibratesticks^0,c
  4017  000A1E  6A4E               	clrf	(??_calibratesticks+1)^0,c
  4018                           
  4019                           ; Switch on 2 bytes has been partitioned into a top level switch of size 1, and 1 sub-sw
      +                          itches
  4020                           ; Switch size 1, requested type "simple"
  4021                           ; Number of cases is 1, Range of values is 0 to 0
  4022                           ; switch strategies available:
  4023                           ; Name         Instructions Cycles
  4024                           ; simple_byte            4     3 (average)
  4025                           ;	Chosen strategy is simple_byte
  4026  000A20  504E               	movf	(??_calibratesticks+1)^0,w,c
  4027  000A22  0A00               	xorlw	0	; case 0
  4028  000A24  B4D8               	btfsc	status,2,c
  4029  000A26  EF17  F005         	goto	l4453
  4030  000A2A  EF1D  F004         	goto	l3589
  4031  000A2E                     l4453:
  4032                           
  4033                           ; BSR set to: 62
  4034                           ; Switch size 1, requested type "simple"
  4035                           ; Number of cases is 4, Range of values is 0 to 3
  4036                           ; switch strategies available:
  4037                           ; Name         Instructions Cycles
  4038                           ; simple_byte           13     7 (average)
  4039                           ;	Chosen strategy is simple_byte
  4040  000A2E  504D               	movf	??_calibratesticks^0,w,c
  4041  000A30  0A00               	xorlw	0	; case 0
  4042  000A32  B4D8               	btfsc	status,2,c
  4043  000A34  EF61  F004         	goto	l3607
  4044  000A38  0A01               	xorlw	1	; case 1
  4045  000A3A  B4D8               	btfsc	status,2,c
  4046  000A3C  EF8C  F004         	goto	l3615
  4047  000A40  0A03               	xorlw	3	; case 2
  4048  000A42  B4D8               	btfsc	status,2,c
  4049  000A44  EFB7  F004         	goto	l3623
  4050  000A48  0A01               	xorlw	1	; case 3
  4051  000A4A  B4D8               	btfsc	status,2,c
  4052  000A4C  EFE2  F004         	goto	l3631
  4053  000A50  EF1D  F004         	goto	l3589
  4054  000A54                     l1357:
  4055  000A54  0012               	return		;funcret
  4056  000A56                     __end_of_calibratesticks:
  4057                           	callstack 0
  4058                           
  4059 ;; *************** function _SYSTEM_Initialize *****************
  4060 ;; Defined at:
  4061 ;;		line 50 in file "mcc_generated_files/mcc.c"
  4062 ;; Parameters:    Size  Location     Type
  4063 ;;		None
  4064 ;; Auto vars:     Size  Location     Type
  4065 ;;		None
  4066 ;; Return value:  Size  Location     Type
  4067 ;;                  1    wreg      void 
  4068 ;; Registers used:
  4069 ;;		wreg, status,2, status,0, cstack
  4070 ;; Tracked objects:
  4071 ;;		On entry : 0/0
  4072 ;;		On exit  : 0/0
  4073 ;;		Unchanged: 0/0
  4074 ;; Data sizes:     COMRAM   BANK0   BANK1   BANK2   BANK3   BANK4   BANK5   BANK6   BANK7
  4075 ;;      Params:         0       0       0       0       0       0       0       0       0
  4076 ;;      Locals:         0       0       0       0       0       0       0       0       0
  4077 ;;      Temps:          0       0       0       0       0       0       0       0       0
  4078 ;;      Totals:         0       0       0       0       0       0       0       0       0
  4079 ;;Total ram usage:        0 bytes
  4080 ;; Hardware stack levels used: 1
  4081 ;; Hardware stack levels required when called: 4
  4082 ;; This function calls:
  4083 ;;		_ADCC_Initialize
  4084 ;;		_INTERRUPT_Initialize
  4085 ;;		_OSCILLATOR_Initialize
  4086 ;;		_PIN_MANAGER_Initialize
  4087 ;;		_PMD_Initialize
  4088 ;;		_PWM1_Initialize
  4089 ;;		_SMT1_Initialize
  4090 ;;		_TMR4_Initialize
  4091 ;; This function is called by:
  4092 ;;		_main
  4093 ;; This function uses a non-reentrant model
  4094 ;;
  4095                           
  4096                           	psect	text17
  4097  00166C                     __ptext17:
  4098                           	callstack 0
  4099  00166C                     _SYSTEM_Initialize:
  4100                           	callstack 26
  4101  00166C                     
  4102                           ;mcc_generated_files/mcc.c: 52:     INTERRUPT_Initialize();
  4103  00166C  EC96  F00B         	call	_INTERRUPT_Initialize	;wreg free
  4104  001670                     
  4105                           ;mcc_generated_files/mcc.c: 53:     PMD_Initialize();
  4106  001670  EC24  F00B         	call	_PMD_Initialize	;wreg free
  4107  001674                     
  4108                           ;mcc_generated_files/mcc.c: 54:     PIN_MANAGER_Initialize();
  4109  001674  EC0A  F009         	call	_PIN_MANAGER_Initialize	;wreg free
  4110  001678                     
  4111                           ;mcc_generated_files/mcc.c: 55:     OSCILLATOR_Initialize();
  4112  001678  EC7B  F00B         	call	_OSCILLATOR_Initialize	;wreg free
  4113  00167C                     
  4114                           ;mcc_generated_files/mcc.c: 56:     PWM1_Initialize();
  4115  00167C  EC6F  F00B         	call	_PWM1_Initialize	;wreg free
  4116  001680                     
  4117                           ;mcc_generated_files/mcc.c: 57:     ADCC_Initialize();
  4118  001680  ECB7  F009         	call	_ADCC_Initialize	;wreg free
  4119  001684                     
  4120                           ;mcc_generated_files/mcc.c: 58:     TMR4_Initialize();
  4121  001684  EC47  F00B         	call	_TMR4_Initialize	;wreg free
  4122  001688                     
  4123                           ;mcc_generated_files/mcc.c: 59:     SMT1_Initialize();
  4124  001688  ECD1  F00A         	call	_SMT1_Initialize	;wreg free
  4125  00168C  0012               	return		;funcret
  4126  00168E                     __end_of_SYSTEM_Initialize:
  4127                           	callstack 0
  4128                           
  4129 ;; *************** function _TMR4_Initialize *****************
  4130 ;; Defined at:
  4131 ;;		line 62 in file "mcc_generated_files/tmr4.c"
  4132 ;; Parameters:    Size  Location     Type
  4133 ;;		None
  4134 ;; Auto vars:     Size  Location     Type
  4135 ;;		None
  4136 ;; Return value:  Size  Location     Type
  4137 ;;                  1    wreg      void 
  4138 ;; Registers used:
  4139 ;;		wreg, status,2
  4140 ;; Tracked objects:
  4141 ;;		On entry : 0/0
  4142 ;;		On exit  : 0/0
  4143 ;;		Unchanged: 0/0
  4144 ;; Data sizes:     COMRAM   BANK0   BANK1   BANK2   BANK3   BANK4   BANK5   BANK6   BANK7
  4145 ;;      Params:         0       0       0       0       0       0       0       0       0
  4146 ;;      Locals:         0       0       0       0       0       0       0       0       0
  4147 ;;      Temps:          0       0       0       0       0       0       0       0       0
  4148 ;;      Totals:         0       0       0       0       0       0       0       0       0
  4149 ;;Total ram usage:        0 bytes
  4150 ;; Hardware stack levels used: 1
  4151 ;; Hardware stack levels required when called: 2
  4152 ;; This function calls:
  4153 ;;		Nothing
  4154 ;; This function is called by:
  4155 ;;		_SYSTEM_Initialize
  4156 ;; This function uses a non-reentrant model
  4157 ;;
  4158                           
  4159                           	psect	text18
  4160  00168E                     __ptext18:
  4161                           	callstack 0
  4162  00168E                     _TMR4_Initialize:
  4163                           	callstack 27
  4164  00168E                     
  4165                           ;mcc_generated_files/tmr4.c: 67:     T4CLKCON = 0x01;
  4166  00168E  0E01               	movlw	1
  4167  001690  6EA2               	movwf	162,c	;volatile
  4168                           
  4169                           ;mcc_generated_files/tmr4.c: 70:     T4HLT = 0x00;
  4170  001692  0E00               	movlw	0
  4171  001694  6EA1               	movwf	161,c	;volatile
  4172                           
  4173                           ;mcc_generated_files/tmr4.c: 73:     T4RST = 0x00;
  4174  001696  0E00               	movlw	0
  4175  001698  6EA3               	movwf	163,c	;volatile
  4176  00169A                     
  4177                           ;mcc_generated_files/tmr4.c: 76:     T4PR = 0xFF;
  4178  00169A  689F               	setf	159,c	;volatile
  4179                           
  4180                           ;mcc_generated_files/tmr4.c: 79:     T4TMR = 0x00;
  4181  00169C  0E00               	movlw	0
  4182  00169E  6E9E               	movwf	158,c	;volatile
  4183  0016A0                     
  4184                           ;mcc_generated_files/tmr4.c: 82:     PIR7bits.TMR4IF = 0;
  4185  0016A0  0139               	movlb	57	; () banked
  4186  0016A2  91A7               	bcf	167,0,b	;volatile
  4187                           
  4188                           ;mcc_generated_files/tmr4.c: 85:     T4CON = 0x80;
  4189  0016A4  0E80               	movlw	128
  4190  0016A6  6EA0               	movwf	160,c	;volatile
  4191  0016A8                     
  4192                           ; BSR set to: 57
  4193  0016A8  0012               	return		;funcret
  4194  0016AA                     __end_of_TMR4_Initialize:
  4195                           	callstack 0
  4196                           
  4197 ;; *************** function _SMT1_Initialize *****************
  4198 ;; Defined at:
  4199 ;;		line 60 in file "mcc_generated_files/smt1.c"
  4200 ;; Parameters:    Size  Location     Type
  4201 ;;		None
  4202 ;; Auto vars:     Size  Location     Type
  4203 ;;		None
  4204 ;; Return value:  Size  Location     Type
  4205 ;;                  1    wreg      void 
  4206 ;; Registers used:
  4207 ;;		wreg, status,2
  4208 ;; Tracked objects:
  4209 ;;		On entry : 0/0
  4210 ;;		On exit  : 0/0
  4211 ;;		Unchanged: 0/0
  4212 ;; Data sizes:     COMRAM   BANK0   BANK1   BANK2   BANK3   BANK4   BANK5   BANK6   BANK7
  4213 ;;      Params:         0       0       0       0       0       0       0       0       0
  4214 ;;      Locals:         0       0       0       0       0       0       0       0       0
  4215 ;;      Temps:          0       0       0       0       0       0       0       0       0
  4216 ;;      Totals:         0       0       0       0       0       0       0       0       0
  4217 ;;Total ram usage:        0 bytes
  4218 ;; Hardware stack levels used: 1
  4219 ;; Hardware stack levels required when called: 2
  4220 ;; This function calls:
  4221 ;;		Nothing
  4222 ;; This function is called by:
  4223 ;;		_SYSTEM_Initialize
  4224 ;; This function uses a non-reentrant model
  4225 ;;
  4226                           
  4227                           	psect	text19
  4228  0015A2                     __ptext19:
  4229                           	callstack 0
  4230  0015A2                     _SMT1_Initialize:
  4231                           	callstack 27
  4232  0015A2                     
  4233                           ;mcc_generated_files/smt1.c: 63:     SMT1CON0 = 0x9C;
  4234  0015A2  0E9C               	movlw	156
  4235  0015A4  013F               	movlb	63	; () banked
  4236  0015A6  6F1E               	movwf	30,b	;volatile
  4237                           
  4238                           ;mcc_generated_files/smt1.c: 66:     SMT1CON1 = 0xC3;
  4239  0015A8  0EC3               	movlw	195
  4240  0015AA  6F1F               	movwf	31,b	;volatile
  4241                           
  4242                           ;mcc_generated_files/smt1.c: 69:     SMT1STAT = 0x00;
  4243  0015AC  0E00               	movlw	0
  4244  0015AE  6F20               	movwf	32,b	;volatile
  4245                           
  4246                           ;mcc_generated_files/smt1.c: 72:     SMT1CLK = 0x00;
  4247  0015B0  0E00               	movlw	0
  4248  0015B2  6F21               	movwf	33,b	;volatile
  4249                           
  4250                           ;mcc_generated_files/smt1.c: 75:     SMT1WIN = 0x0;
  4251  0015B4  0E00               	movlw	0
  4252  0015B6  6F23               	movwf	35,b	;volatile
  4253                           
  4254                           ;mcc_generated_files/smt1.c: 78:     SMT1SIG = 0x00;
  4255  0015B8  0E00               	movlw	0
  4256  0015BA  6F22               	movwf	34,b	;volatile
  4257  0015BC                     
  4258                           ; BSR set to: 63
  4259                           ;mcc_generated_files/smt1.c: 81:     SMT1PRU = 0xFF;
  4260  0015BC  691D               	setf	29,b	;volatile
  4261  0015BE                     
  4262                           ; BSR set to: 63
  4263                           ;mcc_generated_files/smt1.c: 84:     SMT1PRH = 0xFF;
  4264  0015BE  691C               	setf	28,b	;volatile
  4265  0015C0                     
  4266                           ; BSR set to: 63
  4267                           ;mcc_generated_files/smt1.c: 87:     SMT1PRL = 0xFF;
  4268  0015C0  691B               	setf	27,b	;volatile
  4269  0015C2                     
  4270                           ; BSR set to: 63
  4271                           ;mcc_generated_files/smt1.c: 90:     PIE1bits.SMT1PWAIE = 1;
  4272  0015C2  0139               	movlb	57	; () banked
  4273  0015C4  8F91               	bsf	145,7,b	;volatile
  4274  0015C6                     
  4275                           ; BSR set to: 57
  4276                           ;mcc_generated_files/smt1.c: 93:     PIE1bits.SMT1PRAIE = 0;
  4277  0015C6  9D91               	bcf	145,6,b	;volatile
  4278  0015C8                     
  4279                           ; BSR set to: 57
  4280                           ;mcc_generated_files/smt1.c: 96:     SMT1CON1bits.SMT1GO = 1;
  4281  0015C8  013F               	movlb	63	; () banked
  4282  0015CA  8F1F               	bsf	31,7,b	;volatile
  4283  0015CC                     
  4284                           ; BSR set to: 63
  4285  0015CC  0012               	return		;funcret
  4286  0015CE                     __end_of_SMT1_Initialize:
  4287                           	callstack 0
  4288                           
  4289 ;; *************** function _PWM1_Initialize *****************
  4290 ;; Defined at:
  4291 ;;		line 64 in file "mcc_generated_files/pwm1.c"
  4292 ;; Parameters:    Size  Location     Type
  4293 ;;		None
  4294 ;; Auto vars:     Size  Location     Type
  4295 ;;		None
  4296 ;; Return value:  Size  Location     Type
  4297 ;;                  1    wreg      void 
  4298 ;; Registers used:
  4299 ;;		wreg, status,2
  4300 ;; Tracked objects:
  4301 ;;		On entry : 0/0
  4302 ;;		On exit  : 0/0
  4303 ;;		Unchanged: 0/0
  4304 ;; Data sizes:     COMRAM   BANK0   BANK1   BANK2   BANK3   BANK4   BANK5   BANK6   BANK7
  4305 ;;      Params:         0       0       0       0       0       0       0       0       0
  4306 ;;      Locals:         0       0       0       0       0       0       0       0       0
  4307 ;;      Temps:          0       0       0       0       0       0       0       0       0
  4308 ;;      Totals:         0       0       0       0       0       0       0       0       0
  4309 ;;Total ram usage:        0 bytes
  4310 ;; Hardware stack levels used: 1
  4311 ;; Hardware stack levels required when called: 2
  4312 ;; This function calls:
  4313 ;;		Nothing
  4314 ;; This function is called by:
  4315 ;;		_SYSTEM_Initialize
  4316 ;; This function uses a non-reentrant model
  4317 ;;
  4318                           
  4319                           	psect	text20
  4320  0016DE                     __ptext20:
  4321                           	callstack 0
  4322  0016DE                     _PWM1_Initialize:
  4323                           	callstack 27
  4324  0016DE                     
  4325                           ;mcc_generated_files/pwm1.c: 69:  CCP1CON = 0x9C;
  4326  0016DE  0E9C               	movlw	156
  4327  0016E0  6E7E               	movwf	126,c	;volatile
  4328                           
  4329                           ;mcc_generated_files/pwm1.c: 72:  CCPR1H = 0xF0;
  4330  0016E2  0EF0               	movlw	240
  4331  0016E4  6E7D               	movwf	125,c	;volatile
  4332                           
  4333                           ;mcc_generated_files/pwm1.c: 75:  CCPR1L = 0x00;
  4334  0016E6  0E00               	movlw	0
  4335  0016E8  6E7C               	movwf	124,c	;volatile
  4336                           
  4337                           ;mcc_generated_files/pwm1.c: 78:  CCPTMRS0bits.C1TSEL = 0x2;
  4338  0016EA  013F               	movlb	63	; () banked
  4339  0016EC  515E               	movf	94,w,b	;volatile
  4340  0016EE  0BFC               	andlw	-4
  4341  0016F0  0902               	iorlw	2
  4342  0016F2  6F5E               	movwf	94,b	;volatile
  4343  0016F4                     
  4344                           ; BSR set to: 63
  4345  0016F4  0012               	return		;funcret
  4346  0016F6                     __end_of_PWM1_Initialize:
  4347                           	callstack 0
  4348                           
  4349 ;; *************** function _PMD_Initialize *****************
  4350 ;; Defined at:
  4351 ;;		line 76 in file "mcc_generated_files/mcc.c"
  4352 ;; Parameters:    Size  Location     Type
  4353 ;;		None
  4354 ;; Auto vars:     Size  Location     Type
  4355 ;;		None
  4356 ;; Return value:  Size  Location     Type
  4357 ;;                  1    wreg      void 
  4358 ;; Registers used:
  4359 ;;		wreg, status,2
  4360 ;; Tracked objects:
  4361 ;;		On entry : 0/0
  4362 ;;		On exit  : 0/0
  4363 ;;		Unchanged: 0/0
  4364 ;; Data sizes:     COMRAM   BANK0   BANK1   BANK2   BANK3   BANK4   BANK5   BANK6   BANK7
  4365 ;;      Params:         0       0       0       0       0       0       0       0       0
  4366 ;;      Locals:         0       0       0       0       0       0       0       0       0
  4367 ;;      Temps:          0       0       0       0       0       0       0       0       0
  4368 ;;      Totals:         0       0       0       0       0       0       0       0       0
  4369 ;;Total ram usage:        0 bytes
  4370 ;; Hardware stack levels used: 1
  4371 ;; Hardware stack levels required when called: 2
  4372 ;; This function calls:
  4373 ;;		Nothing
  4374 ;; This function is called by:
  4375 ;;		_SYSTEM_Initialize
  4376 ;; This function uses a non-reentrant model
  4377 ;;
  4378                           
  4379                           	psect	text21
  4380  001648                     __ptext21:
  4381                           	callstack 0
  4382  001648                     _PMD_Initialize:
  4383                           	callstack 27
  4384  001648                     
  4385                           ;mcc_generated_files/mcc.c: 79:     PMD0 = 0x00;
  4386  001648  0E00               	movlw	0
  4387  00164A  0139               	movlb	57	; () banked
  4388  00164C  6FC0               	movwf	192,b	;volatile
  4389                           
  4390                           ;mcc_generated_files/mcc.c: 81:     PMD1 = 0x00;
  4391  00164E  0E00               	movlw	0
  4392  001650  6FC1               	movwf	193,b	;volatile
  4393                           
  4394                           ;mcc_generated_files/mcc.c: 83:     PMD2 = 0x00;
  4395  001652  0E00               	movlw	0
  4396  001654  6FC2               	movwf	194,b	;volatile
  4397                           
  4398                           ;mcc_generated_files/mcc.c: 85:     PMD3 = 0x00;
  4399  001656  0E00               	movlw	0
  4400  001658  6FC3               	movwf	195,b	;volatile
  4401                           
  4402                           ;mcc_generated_files/mcc.c: 87:     PMD4 = 0x00;
  4403  00165A  0E00               	movlw	0
  4404  00165C  6FC4               	movwf	196,b	;volatile
  4405                           
  4406                           ;mcc_generated_files/mcc.c: 89:     PMD5 = 0x00;
  4407  00165E  0E00               	movlw	0
  4408  001660  6FC5               	movwf	197,b	;volatile
  4409                           
  4410                           ;mcc_generated_files/mcc.c: 91:     PMD6 = 0x00;
  4411  001662  0E00               	movlw	0
  4412  001664  6FC6               	movwf	198,b	;volatile
  4413                           
  4414                           ;mcc_generated_files/mcc.c: 93:     PMD7 = 0x00;
  4415  001666  0E00               	movlw	0
  4416  001668  6FC7               	movwf	199,b	;volatile
  4417  00166A                     
  4418                           ; BSR set to: 57
  4419  00166A  0012               	return		;funcret
  4420  00166C                     __end_of_PMD_Initialize:
  4421                           	callstack 0
  4422                           
  4423 ;; *************** function _PIN_MANAGER_Initialize *****************
  4424 ;; Defined at:
  4425 ;;		line 57 in file "mcc_generated_files/pin_manager.c"
  4426 ;; Parameters:    Size  Location     Type
  4427 ;;		None
  4428 ;; Auto vars:     Size  Location     Type
  4429 ;;		None
  4430 ;; Return value:  Size  Location     Type
  4431 ;;                  1    wreg      void 
  4432 ;; Registers used:
  4433 ;;		wreg, status,2, status,0, cstack
  4434 ;; Tracked objects:
  4435 ;;		On entry : 0/0
  4436 ;;		On exit  : 0/0
  4437 ;;		Unchanged: 0/0
  4438 ;; Data sizes:     COMRAM   BANK0   BANK1   BANK2   BANK3   BANK4   BANK5   BANK6   BANK7
  4439 ;;      Params:         0       0       0       0       0       0       0       0       0
  4440 ;;      Locals:         0       0       0       0       0       0       0       0       0
  4441 ;;      Temps:          0       0       0       0       0       0       0       0       0
  4442 ;;      Totals:         0       0       0       0       0       0       0       0       0
  4443 ;;Total ram usage:        0 bytes
  4444 ;; Hardware stack levels used: 1
  4445 ;; Hardware stack levels required when called: 3
  4446 ;; This function calls:
  4447 ;;		_IOCBF2_SetInterruptHandler
  4448 ;; This function is called by:
  4449 ;;		_SYSTEM_Initialize
  4450 ;; This function uses a non-reentrant model
  4451 ;;
  4452                           
  4453                           	psect	text22
  4454  001214                     __ptext22:
  4455                           	callstack 0
  4456  001214                     _PIN_MANAGER_Initialize:
  4457                           	callstack 26
  4458  001214                     
  4459                           ;mcc_generated_files/pin_manager.c: 62:     LATA = 0xF0;
  4460  001214  0EF0               	movlw	240
  4461  001216  6EBA               	movwf	186,c	;volatile
  4462                           
  4463                           ;mcc_generated_files/pin_manager.c: 63:     LATB = 0x27;
  4464  001218  0E27               	movlw	39
  4465  00121A  6EBB               	movwf	187,c	;volatile
  4466  00121C                     
  4467                           ;mcc_generated_files/pin_manager.c: 64:     LATC = 0xFF;
  4468  00121C  68BC               	setf	188,c	;volatile
  4469  00121E                     
  4470                           ;mcc_generated_files/pin_manager.c: 69:     TRISA = 0xFF;
  4471  00121E  68C2               	setf	194,c	;volatile
  4472                           
  4473                           ;mcc_generated_files/pin_manager.c: 70:     TRISB = 0xE7;
  4474  001220  0EE7               	movlw	231
  4475  001222  6EC3               	movwf	195,c	;volatile
  4476  001224                     
  4477                           ;mcc_generated_files/pin_manager.c: 71:     TRISC = 0xFF;
  4478  001224  68C4               	setf	196,c	;volatile
  4479                           
  4480                           ;mcc_generated_files/pin_manager.c: 76:     ANSELC = 0x00;
  4481  001226  0E00               	movlw	0
  4482  001228  013A               	movlb	58	; () banked
  4483  00122A  6F60               	movwf	96,b	;volatile
  4484                           
  4485                           ;mcc_generated_files/pin_manager.c: 77:     ANSELB = 0x00;
  4486  00122C  0E00               	movlw	0
  4487  00122E  6F50               	movwf	80,b	;volatile
  4488                           
  4489                           ;mcc_generated_files/pin_manager.c: 78:     ANSELA = 0x07;
  4490  001230  0E07               	movlw	7
  4491  001232  6F40               	movwf	64,b	;volatile
  4492                           
  4493                           ;mcc_generated_files/pin_manager.c: 83:     WPUE = 0x00;
  4494  001234  0E00               	movlw	0
  4495  001236  6F81               	movwf	129,b	;volatile
  4496                           
  4497                           ;mcc_generated_files/pin_manager.c: 84:     WPUB = 0x27;
  4498  001238  0E27               	movlw	39
  4499  00123A  6F51               	movwf	81,b	;volatile
  4500                           
  4501                           ;mcc_generated_files/pin_manager.c: 85:     WPUA = 0xF0;
  4502  00123C  0EF0               	movlw	240
  4503  00123E  6F41               	movwf	65,b	;volatile
  4504  001240                     
  4505                           ; BSR set to: 58
  4506                           ;mcc_generated_files/pin_manager.c: 86:     WPUC = 0xFF;
  4507  001240  6961               	setf	97,b	;volatile
  4508                           
  4509                           ;mcc_generated_files/pin_manager.c: 91:     RB1I2C = 0x00;
  4510  001242  0E00               	movlw	0
  4511  001244  6F5A               	movwf	90,b	;volatile
  4512                           
  4513                           ;mcc_generated_files/pin_manager.c: 92:     RB2I2C = 0x00;
  4514  001246  0E00               	movlw	0
  4515  001248  6F5B               	movwf	91,b	;volatile
  4516                           
  4517                           ;mcc_generated_files/pin_manager.c: 93:     RC3I2C = 0x00;
  4518  00124A  0E00               	movlw	0
  4519  00124C  6F6A               	movwf	106,b	;volatile
  4520                           
  4521                           ;mcc_generated_files/pin_manager.c: 94:     RC4I2C = 0x00;
  4522  00124E  0E00               	movlw	0
  4523  001250  6F6B               	movwf	107,b	;volatile
  4524                           
  4525                           ;mcc_generated_files/pin_manager.c: 99:     ODCONA = 0x00;
  4526  001252  0E00               	movlw	0
  4527  001254  6F42               	movwf	66,b	;volatile
  4528                           
  4529                           ;mcc_generated_files/pin_manager.c: 100:     ODCONB = 0x00;
  4530  001256  0E00               	movlw	0
  4531  001258  6F52               	movwf	82,b	;volatile
  4532                           
  4533                           ;mcc_generated_files/pin_manager.c: 101:     ODCONC = 0x18;
  4534  00125A  0E18               	movlw	24
  4535  00125C  6F62               	movwf	98,b	;volatile
  4536  00125E                     
  4537                           ; BSR set to: 58
  4538                           ;mcc_generated_files/pin_manager.c: 106:     SLRCONA = 0xFF;
  4539  00125E  6943               	setf	67,b	;volatile
  4540  001260                     
  4541                           ; BSR set to: 58
  4542                           ;mcc_generated_files/pin_manager.c: 107:     SLRCONB = 0xFF;
  4543  001260  6953               	setf	83,b	;volatile
  4544  001262                     
  4545                           ; BSR set to: 58
  4546                           ;mcc_generated_files/pin_manager.c: 108:     SLRCONC = 0xFF;
  4547  001262  6963               	setf	99,b	;volatile
  4548  001264                     
  4549                           ; BSR set to: 58
  4550                           ;mcc_generated_files/pin_manager.c: 113:     INLVLA = 0xFF;
  4551  001264  6944               	setf	68,b	;volatile
  4552  001266                     
  4553                           ; BSR set to: 58
  4554                           ;mcc_generated_files/pin_manager.c: 114:     INLVLB = 0xFF;
  4555  001266  6954               	setf	84,b	;volatile
  4556  001268                     
  4557                           ; BSR set to: 58
  4558                           ;mcc_generated_files/pin_manager.c: 115:     INLVLC = 0xFF;
  4559  001268  6964               	setf	100,b	;volatile
  4560                           
  4561                           ;mcc_generated_files/pin_manager.c: 116:     INLVLE = 0x08;
  4562  00126A  0E08               	movlw	8
  4563  00126C  6F84               	movwf	132,b	;volatile
  4564  00126E                     
  4565                           ; BSR set to: 58
  4566                           ;mcc_generated_files/pin_manager.c: 123:     IOCBFbits.IOCBF2 = 0;
  4567  00126E  9557               	bcf	87,2,b	;volatile
  4568  001270                     
  4569                           ; BSR set to: 58
  4570                           ;mcc_generated_files/pin_manager.c: 125:     IOCBNbits.IOCBN2 = 1;
  4571  001270  8556               	bsf	86,2,b	;volatile
  4572  001272                     
  4573                           ; BSR set to: 58
  4574                           ;mcc_generated_files/pin_manager.c: 127:     IOCBPbits.IOCBP2 = 0;
  4575  001272  9555               	bcf	85,2,b	;volatile
  4576  001274                     
  4577                           ; BSR set to: 58
  4578                           ;mcc_generated_files/pin_manager.c: 132:     IOCBF2_SetInterruptHandler(IOCBF2_DefaultIn
      +                          terruptHandler);
  4579  001274  0E00               	movlw	0
  4580  001276  6E4D               	movwf	IOCBF2_SetInterruptHandler@InterruptHandler^0,c
  4581  001278  0E00               	movlw	0
  4582  00127A  6E4E               	movwf	(IOCBF2_SetInterruptHandler@InterruptHandler+1)^0,c
  4583  00127C  EC91  F00B         	call	_IOCBF2_SetInterruptHandler	;wreg free
  4584  001280                     
  4585                           ;mcc_generated_files/pin_manager.c: 134:     RB3PPS = 0x09;
  4586  001280  0E09               	movlw	9
  4587  001282  013A               	movlb	58	; () banked
  4588  001284  6F0B               	movwf	11,b	;volatile
  4589  001286                     
  4590                           ; BSR set to: 58
  4591                           ;mcc_generated_files/pin_manager.c: 135:     SMT1SIGPPS = 0x0A;
  4592  001286  0E0A               	movlw	10
  4593  001288  6FD2               	movwf	210,b	;volatile
  4594  00128A                     
  4595                           ; BSR set to: 58
  4596  00128A  0012               	return		;funcret
  4597  00128C                     __end_of_PIN_MANAGER_Initialize:
  4598                           	callstack 0
  4599                           
  4600 ;; *************** function _IOCBF2_SetInterruptHandler *****************
  4601 ;; Defined at:
  4602 ;;		line 165 in file "mcc_generated_files/pin_manager.c"
  4603 ;; Parameters:    Size  Location     Type
  4604 ;;  InterruptHan    2    4[COMRAM] PTR FTN()void 
  4605 ;;		 -> IOCBF2_DefaultInterruptHandler(1), 
  4606 ;; Auto vars:     Size  Location     Type
  4607 ;;		None
  4608 ;; Return value:  Size  Location     Type
  4609 ;;                  1    wreg      void 
  4610 ;; Registers used:
  4611 ;;		wreg, status,2, status,0
  4612 ;; Tracked objects:
  4613 ;;		On entry : 0/0
  4614 ;;		On exit  : 0/0
  4615 ;;		Unchanged: 0/0
  4616 ;; Data sizes:     COMRAM   BANK0   BANK1   BANK2   BANK3   BANK4   BANK5   BANK6   BANK7
  4617 ;;      Params:         2       0       0       0       0       0       0       0       0
  4618 ;;      Locals:         0       0       0       0       0       0       0       0       0
  4619 ;;      Temps:          0       0       0       0       0       0       0       0       0
  4620 ;;      Totals:         2       0       0       0       0       0       0       0       0
  4621 ;;Total ram usage:        2 bytes
  4622 ;; Hardware stack levels used: 1
  4623 ;; Hardware stack levels required when called: 2
  4624 ;; This function calls:
  4625 ;;		Nothing
  4626 ;; This function is called by:
  4627 ;;		_PIN_MANAGER_Initialize
  4628 ;; This function uses a non-reentrant model
  4629 ;;
  4630                           
  4631                           	psect	text23
  4632  001722                     __ptext23:
  4633                           	callstack 0
  4634  001722                     _IOCBF2_SetInterruptHandler:
  4635                           	callstack 26
  4636  001722                     
  4637                           ;mcc_generated_files/pin_manager.c: 166:     IOCBF2_InterruptHandler = InterruptHandler;
  4638  001722  C04D  F0E3         	movff	IOCBF2_SetInterruptHandler@InterruptHandler,_IOCBF2_InterruptHandler
  4639  001726  C04E  F0E4         	movff	IOCBF2_SetInterruptHandler@InterruptHandler+1,_IOCBF2_InterruptHandler+1
  4640  00172A  0012               	return		;funcret
  4641  00172C                     __end_of_IOCBF2_SetInterruptHandler:
  4642                           	callstack 0
  4643                           
  4644 ;; *************** function _OSCILLATOR_Initialize *****************
  4645 ;; Defined at:
  4646 ;;		line 62 in file "mcc_generated_files/mcc.c"
  4647 ;; Parameters:    Size  Location     Type
  4648 ;;		None
  4649 ;; Auto vars:     Size  Location     Type
  4650 ;;		None
  4651 ;; Return value:  Size  Location     Type
  4652 ;;                  1    wreg      void 
  4653 ;; Registers used:
  4654 ;;		wreg, status,2
  4655 ;; Tracked objects:
  4656 ;;		On entry : 0/0
  4657 ;;		On exit  : 0/0
  4658 ;;		Unchanged: 0/0
  4659 ;; Data sizes:     COMRAM   BANK0   BANK1   BANK2   BANK3   BANK4   BANK5   BANK6   BANK7
  4660 ;;      Params:         0       0       0       0       0       0       0       0       0
  4661 ;;      Locals:         0       0       0       0       0       0       0       0       0
  4662 ;;      Temps:          0       0       0       0       0       0       0       0       0
  4663 ;;      Totals:         0       0       0       0       0       0       0       0       0
  4664 ;;Total ram usage:        0 bytes
  4665 ;; Hardware stack levels used: 1
  4666 ;; Hardware stack levels required when called: 2
  4667 ;; This function calls:
  4668 ;;		Nothing
  4669 ;; This function is called by:
  4670 ;;		_SYSTEM_Initialize
  4671 ;; This function uses a non-reentrant model
  4672 ;;
  4673                           
  4674                           	psect	text24
  4675  0016F6                     __ptext24:
  4676                           	callstack 0
  4677  0016F6                     _OSCILLATOR_Initialize:
  4678                           	callstack 27
  4679  0016F6                     
  4680                           ;mcc_generated_files/mcc.c: 65:     OSCCON1 = 0x60;
  4681  0016F6  0E60               	movlw	96
  4682  0016F8  0139               	movlb	57	; () banked
  4683  0016FA  6FD9               	movwf	217,b	;volatile
  4684                           
  4685                           ;mcc_generated_files/mcc.c: 67:     OSCCON3 = 0x00;
  4686  0016FC  0E00               	movlw	0
  4687  0016FE  6FDB               	movwf	219,b	;volatile
  4688                           
  4689                           ;mcc_generated_files/mcc.c: 69:     OSCEN = 0x00;
  4690  001700  0E00               	movlw	0
  4691  001702  6FDD               	movwf	221,b	;volatile
  4692                           
  4693                           ;mcc_generated_files/mcc.c: 71:     OSCFRQ = 0x08;
  4694  001704  0E08               	movlw	8
  4695  001706  6FDF               	movwf	223,b	;volatile
  4696                           
  4697                           ;mcc_generated_files/mcc.c: 73:     OSCTUNE = 0x00;
  4698  001708  0E00               	movlw	0
  4699  00170A  6FDE               	movwf	222,b	;volatile
  4700  00170C                     
  4701                           ; BSR set to: 57
  4702  00170C  0012               	return		;funcret
  4703  00170E                     __end_of_OSCILLATOR_Initialize:
  4704                           	callstack 0
  4705                           
  4706 ;; *************** function _INTERRUPT_Initialize *****************
  4707 ;; Defined at:
  4708 ;;		line 52 in file "mcc_generated_files/interrupt_manager.c"
  4709 ;; Parameters:    Size  Location     Type
  4710 ;;		None
  4711 ;; Auto vars:     Size  Location     Type
  4712 ;;		None
  4713 ;; Return value:  Size  Location     Type
  4714 ;;                  1    wreg      void 
  4715 ;; Registers used:
  4716 ;;		None
  4717 ;; Tracked objects:
  4718 ;;		On entry : 0/0
  4719 ;;		On exit  : 0/0
  4720 ;;		Unchanged: 0/0
  4721 ;; Data sizes:     COMRAM   BANK0   BANK1   BANK2   BANK3   BANK4   BANK5   BANK6   BANK7
  4722 ;;      Params:         0       0       0       0       0       0       0       0       0
  4723 ;;      Locals:         0       0       0       0       0       0       0       0       0
  4724 ;;      Temps:          0       0       0       0       0       0       0       0       0
  4725 ;;      Totals:         0       0       0       0       0       0       0       0       0
  4726 ;;Total ram usage:        0 bytes
  4727 ;; Hardware stack levels used: 1
  4728 ;; Hardware stack levels required when called: 2
  4729 ;; This function calls:
  4730 ;;		Nothing
  4731 ;; This function is called by:
  4732 ;;		_SYSTEM_Initialize
  4733 ;; This function uses a non-reentrant model
  4734 ;;
  4735                           
  4736                           	psect	text25
  4737  00172C                     __ptext25:
  4738                           	callstack 0
  4739  00172C                     _INTERRUPT_Initialize:
  4740                           	callstack 27
  4741  00172C                     
  4742                           ;mcc_generated_files/interrupt_manager.c: 55:     INTCON0bits.IPEN = 1;
  4743  00172C  8AD2               	bsf	210,5,c	;volatile
  4744                           
  4745                           ;mcc_generated_files/interrupt_manager.c: 60:     IPR1bits.SMT1PWAIP = 1;
  4746  00172E  0139               	movlb	57	; () banked
  4747  001730  8F81               	bsf	129,7,b	;volatile
  4748                           
  4749                           ;mcc_generated_files/interrupt_manager.c: 63:     IPR1bits.SMT1PRAIP = 0;
  4750  001732  9D81               	bcf	129,6,b	;volatile
  4751  001734                     
  4752                           ; BSR set to: 57
  4753  001734  0012               	return		;funcret
  4754  001736                     __end_of_INTERRUPT_Initialize:
  4755                           	callstack 0
  4756                           
  4757 ;; *************** function _ADCC_Initialize *****************
  4758 ;; Defined at:
  4759 ;;		line 62 in file "mcc_generated_files/adcc.c"
  4760 ;; Parameters:    Size  Location     Type
  4761 ;;		None
  4762 ;; Auto vars:     Size  Location     Type
  4763 ;;		None
  4764 ;; Return value:  Size  Location     Type
  4765 ;;                  1    wreg      void 
  4766 ;; Registers used:
  4767 ;;		wreg, status,2
  4768 ;; Tracked objects:
  4769 ;;		On entry : 0/0
  4770 ;;		On exit  : 0/0
  4771 ;;		Unchanged: 0/0
  4772 ;; Data sizes:     COMRAM   BANK0   BANK1   BANK2   BANK3   BANK4   BANK5   BANK6   BANK7
  4773 ;;      Params:         0       0       0       0       0       0       0       0       0
  4774 ;;      Locals:         0       0       0       0       0       0       0       0       0
  4775 ;;      Temps:          0       0       0       0       0       0       0       0       0
  4776 ;;      Totals:         0       0       0       0       0       0       0       0       0
  4777 ;;Total ram usage:        0 bytes
  4778 ;; Hardware stack levels used: 1
  4779 ;; Hardware stack levels required when called: 2
  4780 ;; This function calls:
  4781 ;;		Nothing
  4782 ;; This function is called by:
  4783 ;;		_SYSTEM_Initialize
  4784 ;; This function uses a non-reentrant model
  4785 ;;
  4786                           
  4787                           	psect	text26
  4788  00136E                     __ptext26:
  4789                           	callstack 0
  4790  00136E                     _ADCC_Initialize:
  4791                           	callstack 27
  4792  00136E                     
  4793                           ;mcc_generated_files/adcc.c: 66:     ADLTHL = 0x00;
  4794  00136E  0E00               	movlw	0
  4795  001370  013E               	movlb	62	; () banked
  4796  001372  6FDE               	movwf	222,b	;volatile
  4797                           
  4798                           ;mcc_generated_files/adcc.c: 68:     ADLTHH = 0x00;
  4799  001374  0E00               	movlw	0
  4800  001376  6FDF               	movwf	223,b	;volatile
  4801                           
  4802                           ;mcc_generated_files/adcc.c: 70:     ADUTHL = 0x00;
  4803  001378  0E00               	movlw	0
  4804  00137A  6FE0               	movwf	224,b	;volatile
  4805                           
  4806                           ;mcc_generated_files/adcc.c: 72:     ADUTHH = 0x00;
  4807  00137C  0E00               	movlw	0
  4808  00137E  6FE1               	movwf	225,b	;volatile
  4809                           
  4810                           ;mcc_generated_files/adcc.c: 74:     ADSTPTL = 0x00;
  4811  001380  0E00               	movlw	0
  4812  001382  6FE4               	movwf	228,b	;volatile
  4813                           
  4814                           ;mcc_generated_files/adcc.c: 76:     ADSTPTH = 0x00;
  4815  001384  0E00               	movlw	0
  4816  001386  6FE5               	movwf	229,b	;volatile
  4817                           
  4818                           ;mcc_generated_files/adcc.c: 78:     ADACCU = 0x00;
  4819  001388  0E00               	movlw	0
  4820  00138A  6FEA               	movwf	234,b	;volatile
  4821                           
  4822                           ;mcc_generated_files/adcc.c: 80:     ADRPT = 0x00;
  4823  00138C  0E00               	movlw	0
  4824  00138E  6FEC               	movwf	236,b	;volatile
  4825                           
  4826                           ;mcc_generated_files/adcc.c: 82:     ADPCH = 0x00;
  4827  001390  0E00               	movlw	0
  4828  001392  6FF1               	movwf	241,b	;volatile
  4829                           
  4830                           ;mcc_generated_files/adcc.c: 84:     ADACQL = 0x10;
  4831  001394  0E10               	movlw	16
  4832  001396  6FF3               	movwf	243,b	;volatile
  4833                           
  4834                           ;mcc_generated_files/adcc.c: 86:     ADACQH = 0x00;
  4835  001398  0E00               	movlw	0
  4836  00139A  6FF4               	movwf	244,b	;volatile
  4837                           
  4838                           ;mcc_generated_files/adcc.c: 88:     ADCAP = 0x00;
  4839  00139C  0E00               	movlw	0
  4840  00139E  6FF5               	movwf	245,b	;volatile
  4841                           
  4842                           ;mcc_generated_files/adcc.c: 90:     ADPREL = 0x00;
  4843  0013A0  0E00               	movlw	0
  4844  0013A2  6FF6               	movwf	246,b	;volatile
  4845                           
  4846                           ;mcc_generated_files/adcc.c: 92:     ADPREH = 0x00;
  4847  0013A4  0E00               	movlw	0
  4848  0013A6  6FF7               	movwf	247,b	;volatile
  4849                           
  4850                           ;mcc_generated_files/adcc.c: 94:     ADCON1 = 0x00;
  4851  0013A8  0E00               	movlw	0
  4852  0013AA  6FF9               	movwf	249,b	;volatile
  4853                           
  4854                           ;mcc_generated_files/adcc.c: 96:     ADCON2 = 0x00;
  4855  0013AC  0E00               	movlw	0
  4856  0013AE  6FFA               	movwf	250,b	;volatile
  4857                           
  4858                           ;mcc_generated_files/adcc.c: 98:     ADCON3 = 0x00;
  4859  0013B0  0E00               	movlw	0
  4860  0013B2  6FFB               	movwf	251,b	;volatile
  4861                           
  4862                           ;mcc_generated_files/adcc.c: 100:     ADSTAT = 0x00;
  4863  0013B4  0E00               	movlw	0
  4864  0013B6  6FFC               	movwf	252,b	;volatile
  4865                           
  4866                           ;mcc_generated_files/adcc.c: 102:     ADREF = 0x00;
  4867  0013B8  0E00               	movlw	0
  4868  0013BA  6FFD               	movwf	253,b	;volatile
  4869                           
  4870                           ;mcc_generated_files/adcc.c: 104:     ADACT = 0x00;
  4871  0013BC  0E00               	movlw	0
  4872  0013BE  6FFE               	movwf	254,b	;volatile
  4873                           
  4874                           ;mcc_generated_files/adcc.c: 106:     ADCLK = 0x01;
  4875  0013C0  0E01               	movlw	1
  4876  0013C2  6FFF               	movwf	255,b	;volatile
  4877                           
  4878                           ;mcc_generated_files/adcc.c: 108:     ADCON0 = 0x84;
  4879  0013C4  0E84               	movlw	132
  4880  0013C6  6FF8               	movwf	248,b	;volatile
  4881  0013C8                     
  4882                           ; BSR set to: 62
  4883  0013C8  0012               	return		;funcret
  4884  0013CA                     __end_of_ADCC_Initialize:
  4885                           	callstack 0
  4886                           
  4887 ;; *************** function _INTERRUPT_InterruptManagerHigh *****************
  4888 ;; Defined at:
  4889 ;;		line 70 in file "mcc_generated_files/interrupt_manager.c"
  4890 ;; Parameters:    Size  Location     Type
  4891 ;;		None
  4892 ;; Auto vars:     Size  Location     Type
  4893 ;;		None
  4894 ;; Return value:  Size  Location     Type
  4895 ;;                  1    wreg      void 
  4896 ;; Registers used:
  4897 ;;		wreg, fsr0l, fsr0h, fsr1l, fsr1h, fsr1l, fsr1h, fsr2l, fsr2h, status,2, status,0, pclath, btemp, btemp+1, btemp+2, b
      +temp+3, btemp+4, btemp+5, btemp+6, btemp+7, btemp+8, btemp+9, btemp+10, btemp+11, btemp+12, btemp+13, btemp+14, btemp+15
      +, btemp+16, btemp+17, btemp+18, btemp+19, btemp+20, btemp+21, btemp+22, btemp+23, btemp+24, btemp+25, btemp+26, btemp+27
      +, btemp+28, btemp+29, btemp+30, btemp+31, tosl, structret, tblptrl, tblptrh, tblptru, prodl, prodh, bsr, cstack
  4898 ;; Tracked objects:
  4899 ;;		On entry : 0/0
  4900 ;;		On exit  : 0/0
  4901 ;;		Unchanged: 0/0
  4902 ;; Data sizes:     COMRAM   BANK0   BANK1   BANK2   BANK3   BANK4   BANK5   BANK6   BANK7
  4903 ;;      Params:         0       0       0       0       0       0       0       0       0
  4904 ;;      Locals:         0       0       0       0       0       0       0       0       0
  4905 ;;      Temps:          4       0       0       0       0       0       0       0       0
  4906 ;;      Totals:         4       0       0       0       0       0       0       0       0
  4907 ;;Total ram usage:        4 bytes
  4908 ;; Hardware stack levels used: 1
  4909 ;; Hardware stack levels required when called: 1
  4910 ;; This function calls:
  4911 ;;		_bitgrabber
  4912 ;; This function is called by:
  4913 ;;		Interrupt level 2
  4914 ;; This function uses a non-reentrant model
  4915 ;;
  4916                           
  4917                           	psect	text27
  4918  001300                     __ptext27:
  4919                           	callstack 0
  4920  001300                     _INTERRUPT_InterruptManagerHigh:
  4921                           	callstack 26
  4922                           
  4923                           ; BSR set to: 62
  4924                           ;incstack = 0
  4925  001300  006F FFD8  F049    	movff	tblptrl,??_INTERRUPT_InterruptManagerHigh
  4926  001306  006F FFDC  F04A    	movff	tblptrh,??_INTERRUPT_InterruptManagerHigh+1
  4927  00130C  006F FFE0  F04B    	movff	tblptru,??_INTERRUPT_InterruptManagerHigh+2
  4928  001312  006F FFD4  F04C    	movff	tablat,??_INTERRUPT_InterruptManagerHigh+3
  4929  001318                     
  4930                           ;mcc_generated_files/interrupt_manager.c: 73:     if(PIE1bits.SMT1PWAIE == 1 && PIR1bits
      +                          .SMT1PWAIF == 1)
  4931  001318  0139               	movlb	57	; () banked
  4932  00131A  AF91               	btfss	145,7,b	;volatile
  4933  00131C  EF92  F009         	goto	i2u99_41
  4934  001320  EF94  F009         	goto	i2u99_40
  4935  001324                     i2u99_41:
  4936  001324  EFAA  F009         	goto	i2l547
  4937  001328                     i2u99_40:
  4938  001328                     
  4939                           ; BSR set to: 57
  4940  001328  AFA1               	btfss	161,7,b	;volatile
  4941  00132A  EF99  F009         	goto	i2u100_41
  4942  00132E  EF9B  F009         	goto	i2u100_40
  4943  001332                     i2u100_41:
  4944  001332  EFAA  F009         	goto	i2l547
  4945  001336                     i2u100_40:
  4946  001336                     
  4947                           ; BSR set to: 57
  4948                           ;mcc_generated_files/interrupt_manager.c: 74:     {;mcc_generated_files/interrupt_manage
      +                          r.c: 75:         PIR1bits.SMT1PWAIF = 0;
  4949  001336  9FA1               	bcf	161,7,b	;volatile
  4950                           
  4951                           ;mcc_generated_files/interrupt_manager.c: 76:         gInPulseWidth = SMT1CPWL;
  4952  001338  006F FC60  F02A    	movff	16152,_gInPulseWidth	;volatile
  4953                           
  4954                           ;mcc_generated_files/interrupt_manager.c: 77:         if (gInStatus & (1 << 2))
  4955  00133E  A446               	btfss	_gInStatus^0,2,c	;volatile
  4956  001340  EFA4  F009         	goto	i2u101_41
  4957  001344  EFA6  F009         	goto	i2u101_40
  4958  001348                     i2u101_41:
  4959  001348  EFA8  F009         	goto	i2l2927
  4960  00134C                     i2u101_40:
  4961  00134C                     
  4962                           ; BSR set to: 57
  4963  00134C  9446               	bcf	_gInStatus,2,c	;# 
  4964  00134E  9246               	bcf	_gInStatus,1,c	;# 
  4965  001350                     i2l2927:
  4966                           
  4967                           ;mcc_generated_files/interrupt_manager.c: 83:         bitgrabber();
  4968  001350  EC80  F00A         	call	_bitgrabber	;wreg free
  4969  001354                     i2l547:
  4970  001354  0060  F133  FFF5   	movff	??_INTERRUPT_InterruptManagerHigh+3,tablat
  4971  00135A  0060  F12F  FFF8   	movff	??_INTERRUPT_InterruptManagerHigh+2,tblptru
  4972  001360  0060  F12B  FFF7   	movff	??_INTERRUPT_InterruptManagerHigh+1,tblptrh
  4973  001366  0060  F127  FFF6   	movff	??_INTERRUPT_InterruptManagerHigh,tblptrl
  4974  00136C  0011               	retfie		f
  4975  00136E                     __end_of_INTERRUPT_InterruptManagerHigh:
  4976                           	callstack 0
  4977                           
  4978                           ;
  4979                           ; Interrupt Vector Table @ 0x8
  4980                           ;
  4981                           
  4982                           	psect	ivt0x8
  4983  000008                     __pivt0x8:
  4984                           	callstack 0
  4985  000008                     ivt0x8_base:
  4986                           	callstack 0
  4987                           
  4988                           ; high-priority vector
  4989  000008  EF80  F009         	goto	_INTERRUPT_InterruptManagerHigh
  4990  000018                     	org	16
  4991                           
  4992                           ; low-priority vector
  4993  000018  00FF               	reset	
  4994  0000                     
  4995                           	psect	rparam
  4996  0000                     
  4997                           	psect	idloc
  4998                           
  4999                           ;Config register IDLOC0 @ 0x200000
  5000                           ;	unspecified, using default values
  5001  200000                     	org	2097152
  5002  200000  0FFF               	dw	4095
  5003                           
  5004                           ;Config register IDLOC1 @ 0x200002
  5005                           ;	unspecified, using default values
  5006  200002                     	org	2097154
  5007  200002  0FFF               	dw	4095
  5008                           
  5009                           ;Config register IDLOC2 @ 0x200004
  5010                           ;	unspecified, using default values
  5011  200004                     	org	2097156
  5012  200004  0FFF               	dw	4095
  5013                           
  5014                           ;Config register IDLOC3 @ 0x200006
  5015                           ;	unspecified, using default values
  5016  200006                     	org	2097158
  5017  200006  0FFF               	dw	4095
  5018                           
  5019                           ;Config register IDLOC4 @ 0x200008
  5020                           ;	unspecified, using default values
  5021  200008                     	org	2097160
  5022  200008  0FFF               	dw	4095
  5023                           
  5024                           ;Config register IDLOC5 @ 0x20000A
  5025                           ;	unspecified, using default values
  5026  20000A                     	org	2097162
  5027  20000A  0FFF               	dw	4095
  5028                           
  5029                           ;Config register IDLOC6 @ 0x20000C
  5030                           ;	unspecified, using default values
  5031  20000C                     	org	2097164
  5032  20000C  0FFF               	dw	4095
  5033                           
  5034                           ;Config register IDLOC7 @ 0x20000E
  5035                           ;	unspecified, using default values
  5036  20000E                     	org	2097166
  5037  20000E  0FFF               	dw	4095
  5038                           
  5039                           	psect	config
  5040                           
  5041                           ;Config register CONFIG1L @ 0x300000
  5042                           ;	External Oscillator Selection
  5043                           ;	FEXTOSC = OFF, Oscillator not enabled
  5044                           ;	Reset Oscillator Selection
  5045                           ;	RSTOSC = HFINTOSC_64MHZ, HFINTOSC with HFFRQ = 64 MHz and CDIV = 1:1
  5046  300000                     	org	3145728
  5047  300000  8C                 	db	140
  5048                           
  5049                           ;Config register CONFIG1H @ 0x300001
  5050                           ;	Clock out Enable bit
  5051                           ;	CLKOUTEN = OFF, CLKOUT function is disabled
  5052                           ;	PRLOCKED One-Way Set Enable bit
  5053                           ;	PR1WAY = ON, PRLOCK bit can be cleared and set only once
  5054                           ;	Clock Switch Enable bit
  5055                           ;	CSWEN = ON, Writing to NOSC and NDIV is allowed
  5056                           ;	Fail-Safe Clock Monitor Enable bit
  5057                           ;	FCMEN = ON, Fail-Safe Clock Monitor enabled
  5058  300001                     	org	3145729
  5059  300001  FF                 	db	255
  5060                           
  5061                           ;Config register CONFIG2L @ 0x300002
  5062                           ;	MCLR Enable bit
  5063                           ;	MCLRE = EXTMCLR, If LVP = 0, MCLR pin is MCLR; If LVP = 1, RE3 pin function is MCLR
  5064                           ;	Power-up timer selection bits
  5065                           ;	PWRTS = PWRT_OFF, PWRT is disabled
  5066                           ;	Multi-vector enable bit
  5067                           ;	MVECEN = OFF, Interrupt contoller does not use vector table to prioritze interrupts
  5068                           ;	IVTLOCK bit One-way set enable bit
  5069                           ;	IVT1WAY = ON, IVTLOCK bit can be cleared and set only once
  5070                           ;	Low Power BOR Enable bit
  5071                           ;	LPBOREN = OFF, ULPBOR disabled
  5072                           ;	Brown-out Reset Enable bits
  5073                           ;	BOREN = SBORDIS, Brown-out Reset enabled , SBOREN bit is ignored
  5074  300002                     	org	3145730
  5075  300002  F7                 	db	247
  5076                           
  5077                           ;Config register CONFIG2H @ 0x300003
  5078                           ;	Brown-out Reset Voltage Selection bits
  5079                           ;	BORV = VBOR_2P45, Brown-out Reset Voltage (VBOR) set to 2.45V
  5080                           ;	ZCD Disable bit
  5081                           ;	ZCD = OFF, ZCD disabled. ZCD can be enabled by setting the ZCDSEN bit of ZCDCON
  5082                           ;	PPSLOCK bit One-Way Set Enable bit
  5083                           ;	PPS1WAY = ON, PPSLOCK bit can be cleared and set only once; PPS registers remain locke
      +                          d after one clear/set cycle
  5084                           ;	Stack Full/Underflow Reset Enable bit
  5085                           ;	STVREN = ON, Stack full/underflow will cause Reset
  5086                           ;	Debugger Enable bit
  5087                           ;	DEBUG = OFF, Background debugger disabled
  5088                           ;	Extended Instruction Set Enable bit
  5089                           ;	XINST = OFF, Extended Instruction Set and Indexed Addressing Mode disabled
  5090  300003                     	org	3145731
  5091  300003  FF                 	db	255
  5092                           
  5093                           ;Config register CONFIG3L @ 0x300004
  5094                           ;	WDT Period selection bits
  5095                           ;	WDTCPS = WDTCPS_31, Divider ratio 1:65536; software control of WDTPS
  5096                           ;	WDT operating mode
  5097                           ;	WDTE = OFF, WDT Disabled; SWDTEN is ignored
  5098  300004                     	org	3145732
  5099  300004  9F                 	db	159
  5100                           
  5101                           ;Config register CONFIG3H @ 0x300005
  5102                           ;	WDT Window Select bits
  5103                           ;	WDTCWS = WDTCWS_7, window always open (100%); software control; keyed access not requi
      +                          red
  5104                           ;	WDT input clock selector
  5105                           ;	WDTCCS = SC, Software Control
  5106  300005                     	org	3145733
  5107  300005  FF                 	db	255
  5108                           
  5109                           ;Config register CONFIG4L @ 0x300006
  5110                           ;	Boot Block Size selection bits
  5111                           ;	BBSIZE = BBSIZE_512, Boot Block size is 512 words
  5112                           ;	Boot Block enable bit
  5113                           ;	BBEN = OFF, Boot block disabled
  5114                           ;	Storage Area Flash enable bit
  5115                           ;	SAFEN = OFF, SAF disabled
  5116                           ;	Application Block write protection bit
  5117                           ;	WRTAPP = OFF, Application Block not write protected
  5118  300006                     	org	3145734
  5119  300006  FF                 	db	255
  5120                           
  5121                           ;Config register CONFIG4H @ 0x300007
  5122                           ;	Configuration Register Write Protection bit
  5123                           ;	WRTB = OFF, Configuration registers (300000-30000Bh) not write-protected
  5124                           ;	Boot Block Write Protection bit
  5125                           ;	WRTC = OFF, Boot Block (000000-0007FFh) not write-protected
  5126                           ;	Data EEPROM Write Protection bit
  5127                           ;	WRTD = OFF, Data EEPROM not write-protected
  5128                           ;	SAF Write protection bit
  5129                           ;	WRTSAF = OFF, SAF not Write Protected
  5130                           ;	Low Voltage Programming Enable bit
  5131                           ;	LVP = ON, Low voltage programming enabled. MCLR/VPP pin function is MCLR. MCLRE config
      +                          uration bit is ignored
  5132  300007                     	org	3145735
  5133  300007  FF                 	db	255
  5134                           
  5135                           ;Config register CONFIG5L @ 0x300008
  5136                           ;	PFM and Data EEPROM Code Protection bit
  5137                           ;	CP = OFF, PFM and Data EEPROM code protection disabled
  5138  300008                     	org	3145736
  5139  300008  FF                 	db	255
  5140                           
  5141                           ;Config register CONFIG5H @ 0x300009
  5142                           ;	unspecified, using default values
  5143  300009                     	org	3145737
  5144  300009  FF                 	db	255
  5145                           tosu	equ	0x3FFF
  5146                           tosh	equ	0x3FFE
  5147                           tosl	equ	0x3FFD
  5148                           stkptr	equ	0x3FFC
  5149                           pclatu	equ	0x3FFB
  5150                           pclath	equ	0x3FFA
  5151                           pcl	equ	0x3FF9
  5152                           tblptru	equ	0x3FF8
  5153                           tblptrh	equ	0x3FF7
  5154                           tblptrl	equ	0x3FF6
  5155                           tablat	equ	0x3FF5
  5156                           prodh	equ	0x3FF4
  5157                           prodl	equ	0x3FF3
  5158                           indf0	equ	0x3FEF
  5159                           postinc0	equ	0x3FEE
  5160                           postdec0	equ	0x3FED
  5161                           preinc0	equ	0x3FEC
  5162                           plusw0	equ	0x3FEB
  5163                           fsr0h	equ	0x3FEA
  5164                           fsr0l	equ	0x3FE9
  5165                           wreg	equ	0x3FE8
  5166                           indf1	equ	0x3FE7
  5167                           postinc1	equ	0x3FE6
  5168                           postdec1	equ	0x3FE5
  5169                           preinc1	equ	0x3FE4
  5170                           plusw1	equ	0x3FE3
  5171                           fsr1h	equ	0x3FE2
  5172                           fsr1l	equ	0x3FE1
  5173                           bsr	equ	0x3FE0
  5174                           indf2	equ	0x3FDF
  5175                           postinc2	equ	0x3FDE
  5176                           postdec2	equ	0x3FDD
  5177                           preinc2	equ	0x3FDC
  5178                           plusw2	equ	0x3FDB
  5179                           fsr2h	equ	0x3FDA
  5180                           fsr2l	equ	0x3FD9
  5181                           status	equ	0x3FD8

Data Sizes:
    Strings     0
    Constant    0
    Data        67
    BSS         180
    Persistent  2
    Stack       0

Auto Spaces:
    Space          Size  Autos    Used
    COMRAM           95     19      91
    BANK0           160     16     133
    BANK1           256      0      60
    BANK2           256      0       0
    BANK3           256      0       0
    BANK4           256      0       0
    BANK5           256      0       0
    BANK6           256      0       0
    BANK7           211      0       0

Pointer List with Targets:

    memset@dest	PTR void  size(2) Largest target is 45
		 -> SettingData(BIGRAM[45]), 

    memset@s	PTR unsigned char  size(2) Largest target is 45
		 -> SettingData(BIGRAM[45]), 

    savesettings@writing	PTR unsigned char  size(2) Largest target is 45
		 -> SettingData(BIGRAM[45]), 

    loadsettings@loading	PTR unsigned char  size(2) Largest target is 45
		 -> SettingData(BIGRAM[45]), 

    sp__memset	PTR void  size(2) Largest target is 45
		 -> SettingData(BIGRAM[45]), 

    IOCBF2_SetInterruptHandler@InterruptHandler	PTR FTN()void  size(2) Largest target is 1
		 -> IOCBF2_DefaultInterruptHandler(), 

    IOCBF2_InterruptHandler	PTR FTN()void  size(2) Largest target is 1
		 -> Absolute function(), IOCBF2_DefaultInterruptHandler(), 


Critical Paths under _main in COMRAM

    _main->_loadsettings
    _setstickmultipliers->_getmultiplier
    _getmultiplier->___lwdiv
    _scansticks->_slinjim
    _slinjim->___wmul
    _loadsettings->_memset
    _savesettings->_DATAEE_WriteByte
    _PIN_MANAGER_Initialize->_IOCBF2_SetInterruptHandler

Critical Paths under _INTERRUPT_InterruptManagerHigh in COMRAM

    None.

Critical Paths under _main in BANK0

    _main->_checkbuttons
    _setstickmultipliers->_getmultiplier

Critical Paths under _INTERRUPT_InterruptManagerHigh in BANK0

    None.

Critical Paths under _main in BANK1

    None.

Critical Paths under _INTERRUPT_InterruptManagerHigh in BANK1

    None.

Critical Paths under _main in BANK2

    None.

Critical Paths under _INTERRUPT_InterruptManagerHigh in BANK2

    None.

Critical Paths under _main in BANK3

    None.

Critical Paths under _INTERRUPT_InterruptManagerHigh in BANK3

    None.

Critical Paths under _main in BANK4

    None.

Critical Paths under _INTERRUPT_InterruptManagerHigh in BANK4

    None.

Critical Paths under _main in BANK5

    None.

Critical Paths under _INTERRUPT_InterruptManagerHigh in BANK5

    None.

Critical Paths under _main in BANK6

    None.

Critical Paths under _INTERRUPT_InterruptManagerHigh in BANK6

    None.

Critical Paths under _main in BANK7

    None.

Critical Paths under _INTERRUPT_InterruptManagerHigh in BANK7

    None.

Call Graph Tables:

 ---------------------------------------------------------------------------------
 (Depth) Function   	        Calls       Base Space   Used Autos Params    Refs
 ---------------------------------------------------------------------------------
 (0) _main                                                 0     0      0    4897
                  _SYSTEM_Initialize
                        _bytecleanup
                           _bytepush
                    _calibratesticks
                       _checkbuttons
                      _commandreader
                          _desyncfix
                       _loadsettings
                       _savesettings
                         _scansticks
                _setstickmultipliers
                         _zerosticks
 ---------------------------------------------------------------------------------
 (1) _zerosticks                                           0     0      0       0
 ---------------------------------------------------------------------------------
 (1) _setstickmultipliers                                  0     0      0    2205
                      _getmultiplier
 ---------------------------------------------------------------------------------
 (2) _getmultiplier                                       10     6      4    2205
                                             11 COMRAM     4     0      4
                                              0 BANK0      6     6      0
                            ___lwdiv
 ---------------------------------------------------------------------------------
 (3) ___lwdiv                                              7     3      4     601
                                              4 COMRAM     7     3      4
 ---------------------------------------------------------------------------------
 (1) _scansticks                                           4     4      0     682
                                              0 BANK0      4     4      0
                            _slinjim
 ---------------------------------------------------------------------------------
 (2) _slinjim                                              6     2      4     682
                                             10 COMRAM     6     2      4
                             ___wmul
 ---------------------------------------------------------------------------------
 (3) ___wmul                                               6     2      4     311
                                              4 COMRAM     6     2      4
 ---------------------------------------------------------------------------------
 (1) _loadsettings                                         3     3      0    1360
                                             16 COMRAM     3     3      0
                    _DATAEE_ReadByte
                             _memset
                       _savesettings
                 _setdefaultsettings
 ---------------------------------------------------------------------------------
 (2) _setdefaultsettings                                   0     0      0       0
 ---------------------------------------------------------------------------------
 (1) _savesettings                                         3     3      0     256
                                              7 COMRAM     3     3      0
                   _DATAEE_WriteByte
 ---------------------------------------------------------------------------------
 (2) _DATAEE_WriteByte                                     3     2      1     143
                                              4 COMRAM     3     2      1
 ---------------------------------------------------------------------------------
 (2) _memset                                              12     6      6     947
                                              4 COMRAM    12     6      6
 ---------------------------------------------------------------------------------
 (2) _DATAEE_ReadByte                                      1     1      0      22
                                              4 COMRAM     1     1      0
 ---------------------------------------------------------------------------------
 (1) _desyncfix                                            1     1      0       0
                                              4 COMRAM     1     1      0
 ---------------------------------------------------------------------------------
 (1) _commandreader                                        0     0      0       0
 ---------------------------------------------------------------------------------
 (1) _checkbuttons                                        18    18      0     296
                                              4 COMRAM     2     2      0
                                              0 BANK0     16    16      0
 ---------------------------------------------------------------------------------
 (1) _calibratesticks                                      2     2      0       0
                                              4 COMRAM     2     2      0
 ---------------------------------------------------------------------------------
 (1) _bytepush                                             0     0      0       0
 ---------------------------------------------------------------------------------
 (1) _bytecleanup                                          0     0      0       0
 ---------------------------------------------------------------------------------
 (1) _SYSTEM_Initialize                                    0     0      0      98
                    _ADCC_Initialize
               _INTERRUPT_Initialize
              _OSCILLATOR_Initialize
             _PIN_MANAGER_Initialize
                     _PMD_Initialize
                    _PWM1_Initialize
                    _SMT1_Initialize
                    _TMR4_Initialize
 ---------------------------------------------------------------------------------
 (2) _TMR4_Initialize                                      0     0      0       0
 ---------------------------------------------------------------------------------
 (2) _SMT1_Initialize                                      0     0      0       0
 ---------------------------------------------------------------------------------
 (2) _PWM1_Initialize                                      0     0      0       0
 ---------------------------------------------------------------------------------
 (2) _PMD_Initialize                                       0     0      0       0
 ---------------------------------------------------------------------------------
 (2) _PIN_MANAGER_Initialize                               0     0      0      98
         _IOCBF2_SetInterruptHandler
 ---------------------------------------------------------------------------------
 (3) _IOCBF2_SetInterruptHandler                           2     0      2      98
                                              4 COMRAM     2     0      2
 ---------------------------------------------------------------------------------
 (2) _OSCILLATOR_Initialize                                0     0      0       0
 ---------------------------------------------------------------------------------
 (2) _INTERRUPT_Initialize                                 0     0      0       0
 ---------------------------------------------------------------------------------
 (2) _ADCC_Initialize                                      0     0      0       0
 ---------------------------------------------------------------------------------
 Estimated maximum stack depth 3
 ---------------------------------------------------------------------------------
 (Depth) Function   	        Calls       Base Space   Used Autos Params    Refs
 ---------------------------------------------------------------------------------
 (4) _INTERRUPT_InterruptManagerHigh                       4     4      0       0
                                              0 COMRAM     4     4      0
                         _bitgrabber
 ---------------------------------------------------------------------------------
 (5) _bitgrabber                                           0     0      0       0
 ---------------------------------------------------------------------------------
 Estimated maximum stack depth 5
 ---------------------------------------------------------------------------------

 Call Graph Graphs:

 _main (ROOT)
   _SYSTEM_Initialize
     _ADCC_Initialize
     _INTERRUPT_Initialize
     _OSCILLATOR_Initialize
     _PIN_MANAGER_Initialize
       _IOCBF2_SetInterruptHandler
     _PMD_Initialize
     _PWM1_Initialize
     _SMT1_Initialize
     _TMR4_Initialize
   _bytecleanup
   _bytepush
   _calibratesticks
   _checkbuttons
   _commandreader
   _desyncfix
   _loadsettings
     _DATAEE_ReadByte
     _memset
     _savesettings
       _DATAEE_WriteByte
     _setdefaultsettings
   _savesettings
   _scansticks
     _slinjim
       ___wmul
   _setstickmultipliers
     _getmultiplier
       ___lwdiv
   _zerosticks

 _INTERRUPT_InterruptManagerHigh (ROOT)
   _bitgrabber

 Address spaces:
Name               Size   Autos  Total    Cost      Usage
BIGRAM             7D2      0       0      20        0.0%
EEDATA             100      0       0       0        0.0%
BITBANK6           100      0       0      15        0.0%
BANK6              100      0       0      16        0.0%
BITBANK5           100      0       0      13        0.0%
BANK5              100      0       0      14        0.0%
BITBANK4           100      0       0      11        0.0%
BANK4              100      0       0      12        0.0%
BITBANK3           100      0       0       9        0.0%
BANK3              100      0       0      10        0.0%
BITBANK2           100      0       0       7        0.0%
BANK2              100      0       0       8        0.0%
BITBANK1           100      0       0       5        0.0%
BANK1              100      0      3C       6       23.4%
BITBANK7            D3      0       0      17        0.0%
BANK7               D3      0       0      18        0.0%
BITBANK0            A0      0       0       3        0.0%
BANK0               A0     10      85       4       83.1%
BITCOMRAM           5F      0       0       0        0.0%
COMRAM              5F     13      5B       1       95.8%
BITSFR_8             0      0       0     200        0.0%
SFR_8                0      0       0     200        0.0%
BITSFR_7             0      0       0     200        0.0%
SFR_7                0      0       0     200        0.0%
BITSFR_6             0      0       0     200        0.0%
SFR_6                0      0       0     200        0.0%
BITSFR_5             0      0       0     200        0.0%
SFR_5                0      0       0     200        0.0%
BITSFR_4             0      0       0     200        0.0%
SFR_4                0      0       0     200        0.0%
BITSFR_3             0      0       0     200        0.0%
SFR_3                0      0       0     200        0.0%
BITSFR_2             0      0       0     200        0.0%
SFR_2                0      0       0     200        0.0%
BITSFR_1             0      0       0     200        0.0%
SFR_1                0      0       0     200        0.0%
BITSFR               0      0       0     200        0.0%
SFR                  0      0       0     200        0.0%
STACK                0      0       0       2        0.0%
NULL                 0      0       0       0        0.0%
ABS                  0      0     11C      19        0.0%
DATA                 0      0     11C      21        0.0%
CODE                 0      0       0       0        0.0%


Microchip Technology PIC18 Macro Assembler V2.32 build 20210201212658 
Symbol Table                                                                                   Tue Jan 18 14:08:51 2022

              __size_of_setstickmultipliers 0142                      __size_of_getmultiplier 0056  
                       ___wmul@multiplicand 004F                              ?_commandreader 0049  
                                       l141 168C                                         l222 128A  
                                       l144 170C                                         l233 172A  
                                       l147 166A                                         l371 15CC  
                                       l626 13C8                                         l538 1734  
                                       l815 16A8                                         l760 14AE  
                                       l761 14BA                                         l780 16F4  
                                       l764 16DC                                         l758 14A0  
                                       _PR4 003F9F                     __size_of_PMD_Initialize 0024  
                                       wreg 003FE8                            ?_calibratesticks 0049  
                      __end_of_checkbuttons 0478                                        l1000 0FD4  
                                      l1006 103A                                        l1313 1646  
                                      l1148 1720                                        l1332 057C  
                                      l1316 1474                                        l1334 05BC  
                                      l1335 05FC                                        l1319 04A0  
                                      l1336 063C                                        l1328 04E2  
                                      l1329 07C8                                        l1362 0908  
                                      l2146 12FE                                        l1347 07F2  
                                      l2323 0E18                                        l2139 12F6  
                                      l1372 0A0A                                        l1357 0A54  
                                      l1517 0476                                        l4101 0530  
                                      l1366 095E                                        l4103 0534  
                                      l1631 14FE                                        l1640 1194  
                                      l3401 1260                                        l1369 09B4  
                                      l4201 0214                                        l4121 0702  
                                      l4113 067C                                        l4105 053C  
                                      l4041 128C                                        l1634 0F5A  
                                      l3411 126E                                        l3403 1262  
                                      l4211 0264                                        l4203 023A  
                                      l4131 07B8                                        l4123 072E  
                                      l4115 06B6                                        l4107 0544  
                                      l4051 12C4                                        l4043 1294  
                                      l1628 1110                                        l3421 1286  
                                      l3413 1270                                        l3405 1264  
                                      l4221 02D6                                        l4205 0248  
                                      l4213 0282                                        l3501 0CBA  
                                      l3341 1480                                        l1645 1572  
                                      l1637 113A                                        l4125 075C  
                                      l4117 06D8                                        l4109 0546  
                                      l4061 12F0                                        l4053 12CA  
                                      l4045 12A6                                        l4301 0FE8  
                                      l3423 16F6                                        l3415 1272  
                                      l3407 1266                                        l3431 169A  
                                      l4231 0326                                        l4223 02E0  
                                      l4215 0294                                        l4207 0256  
                                      l4151 003E                                        l3511 0D6C  
                                      l3351 1496                                        l3343 1486  
                                      l4127 0772                                        l4119 06EE  
                                      l4055 12E0                                        l4047 12AE  
                                      l4063 1420                                        l4311 1014  
                                      l4303 0FEC                                        l1648 15F6  
                                      l3337 1722                                        l3417 1274  
                                      l3409 1268                                        l3425 16DE  
                                      l3441 15C0                                        l3433 16A0  
                                      l3601 0884                                        l4241 038A  
                                      l1497 0408                                        l4233 0330  
                                      l4225 02E4                                        l4217 02BA  
                                      l4209 0260                                        l4161 00C6  
                                      l4153 0058                                        l3521 0DFC  
                                      l3513 0D9C                                        l3505 0CF2  
                                      l3353 149A                                        l3345 148C  
                                      l4129 0786                                        l4081 04B0  
                                      l4057 12E8                                        l4049 12B6  
                                      l4065 142E                                        l4073 0E1A  
                                      l4321 103C                                        l4313 1016  
                                      l4305 0FF0                                        l3427 136E  
                                      l3419 1280                                        l3443 15C2  
                                      l3435 15A2                                        l3531 1674  
                                      l3611 08E6                                        l3603 088C  
                                      l4251 03DA                                        l4243 0398  
                                      l4235 0334                                        l4227 030A  
                                      l4219 02C8                                        l4171 011E  
                                      l4163 00CA                                        l4155 007A  
                                      l4147 001E                                        l3451 16CC  
                                      l3523 0E02                                        l3507 0D52  
                                      l3355 149E                                        l3347 1492  
                                      l3339 1478                                        l4091 04E6  
                                      l4075 0478                                        l4059 12EA  
                                      l4067 1450                                        l4315 101E  
                                      l4323 1040                                        l4307 0FF4  
                                      l3445 15C6                                        l3437 15BC  
                                      l3429 168E                                        l3541 1688  
                                      l3533 1678                                        l3621 0952  
                                      l3613 08FC                                        l3605 088E  
                                      l4261 042A                                        l4253 03E8  
                                      l4245 03A6                                        l4229 0318  
                                      l4237 0352                                        l4181 016E  
                                      l4173 0128                                        l4165 00DC  
                                      l4157 0098                                        l4149 002C  
                                      l3453 16D2                                        l3525 0E06  
                                      l3517 0DB6                                        l3349 1494  
                                      l3357 15CE                                        l4085 04C4  
                                      l4077 0488                                        l4069 146C  
                                      l4325 104E                                        l4317 1030  
                                      l4309 1002                                        l3391 121C  
                                      l3447 15C8                                        l3439 15BE  
                                      l3535 167C                                        l3527 166C  
                                      l3631 09C4                                        l3623 096E  
                                      l3615 0918                                        l3607 08C2  
                                      l4263 0448                                        l4255 03F6  
                                      l4247 03B0                                        l4239 0364  
                                      l4191 01C4                                        l4183 0178  
                                      l4175 012C                                        l4167 0102  
                                      l4159 00B2                                        l3455 16D4  
                                      l3519 0DEA                                        l3471 154A  
                                      l3463 153E                                        l3543 1112  
                                      l3359 15EE                                        l4087 04CE  
                                      l4079 048E                                        l4319 1032  
                                      l4271 0F64                                        l3385 172C  
                                      l3393 121E                                        l3537 1680  
                                      l3529 1670                                        l3633 09DC  
                                      l3625 0986                                        l3617 0930  
                                      l3609 08DA                                        l3641 0A1A  
                                      l4265 0462                                        l4257 0400  
                                      l4249 03B4                                        l4193 01EA  
                                      l4185 017C                                        l4177 0152  
                                      l4169 0110                                        l3457 16D6  
                                      l3449 16C6                                        l3473 1560  
                                      l3465 1546                                        l3561 117A  
                                      l3553 113C                                        l3545 112E  
                                      l4089 04D8                                        l4097 04F2  
                                      l4281 0F96                                        l4273 0F6A  
                                      l3395 1224                                        l3387 1648  
                                      l3539 1684                                        l3635 09E8  
                                      l3627 0992                                        l3619 093C  
                                      l4451 0852                                        l3571 07CA  
                                      l4195 01F8                                        l4259 0408  
                                      l4187 0196                                        l4179 0160  
                                      l3459 16D8                                        l3475 1562  
                                      l3555 1150                                        l3547 1136  
                                      l4099 052E                                        l4291 0FB8  
                                      l4283 0F9A                                        l4275 0F6C  
                                      l4267 0F5C                                        l3397 1240  
                                      l3389 1214                                        l4453 0A2E  
                                      l3637 09FE                                        l3629 09A8  
                                      l3581 0816                                        l3573 07DA  
                                      l4197 0206                                        l4189 01B4  
                                      l3493 105A                                        l3557 1162  
                                      l3565 1182                                        l3477 1622  
                                      l4293 0FBC                                        l4285 0FA2  
                                      l4277 0F7A                                        l4269 0F60  
                                      l3399 125E                                        l3583 081E  
                                      l3575 07E0                                        l4199 0210  
                                      l3495 0C8A                                        l3567 1184  
                                      l3559 1176                                        l3479 1644  
                                      l4447 0508                                        l4287 0FA6  
                                      l4279 0F88                                        l4295 0FC4  
                                      l3585 0826                                        l3593 083E  
                                      l3577 0802                                        l3657 170E  
                                      l4449 0690                                        l3569 14BC  
                                      l4297 0FD6                                        l4289 0FB4  
                                      l3587 082E                                        l3595 0878  
                                      l3499 0CA8                                        l4299 0FDA  
                                      l3597 087A                                        l3589 083A  
                                      l3599 087E                     __end_of_PWM1_Initialize 16F6  
                                      u1300 0CEE                                        u1301 0CEA  
                                      u1310 0D68                                        u1230 14AE  
                                      u1311 0D64                                        u1231 14AA  
                                      u1400 08DA                                        u3000 045A  
                                      u1320 0DB2                                        u1401 08D6  
                                      u3001 0452                                        u1321 0DAE  
                                      u1410 08FC                                        u1330 0E18  
                                      u1411 08F8                                        u1331 0E14  
                                      u1420 0930                                        u3020 0472  
                                      u1340 1162                                        u3100 1002  
                                      u1421 092C                                        u3021 046C  
                                      u1245 14B8                                        u1341 115E  
                                      u3101 0FFE                                        _LATA 003FBA  
                                      u1430 0952                                        u3030 0474  
                                      u1246 14BA                                        u1350 1176  
                                      u2310 12A6                                        u3110 1014  
                                      _LATB 003FBB                                        u1431 094E  
                                      u1351 1172                                        u2311 12A2  
                                      u3111 1010                                        _LATC 003FBC  
                                      u1440 0986                                        u1280 1572  
                                      u1360 1194                                        u2400 0772  
                                      u2320 12C4                                        u3120 1030  
                                      u3040 0F7A                                        u1441 0982  
                                      u1281 156E                                        u1361 1190  
                                      u2401 076E                                        u2321 12C0  
                                      u3121 102C                                        u3041 0F76  
                                      u1450 09A8                                        u1370 07DA  
                                      u3018 045C                                        u2410 002C  
                                      u1290 0CA4                                        u2330 12E0  
                                      u3130 104E                                        u3050 0F88  
                                      u1451 09A4                                        u1371 07D6  
                                      u2411 0028                                        u1291 0CA0  
                                      u2331 12DC                                        u3131 104A  
                                      u3051 0F84                                        u1460 09DC  
                                      u1380 0802                                        u2500 00C2  
                                      u2420 0050                                        u2340 0488  
                                      u3060 0F96                                        u1461 09D8  
                                      u1381 07FE                                        u2501 00BC  
                                      u2421 0048                                        u2341 0484  
                                      u3061 0F92                                        u1470 09FE  
                                      u1390 0812                                        u2510 00C4  
                                      u2350 04B0                                        u3070 0FB4  
                                      u1471 09FA                                        u1391 080E  
                                      u2351 04AC                                        u3071 0FB0  
                                      u2600 0160                                        u2520 00DC  
                                      u2440 006A                                        u2360 04C0  
                                      u3080 0FD4                                        u2601 015C  
                                      u2521 00D8                                        u2441 0062  
                                      u2361 04BC                                        u3081 0FD0  
                                      u2610 018E                                        u2530 00EE  
                                      u2370 06D8                                        u3090 0FE8  
                                      u2611 0186                                        u2531 00E6  
                                      u3147 1714                                        u2371 06D4  
                                      u3091 0FE4                                        u2700 0226  
                                      u2460 008C                                        u2380 06EE  
                                      u2701 021E                                        u2461 0084  
                                      u2381 06EA                                        u2630 01A8  
                                      u2438 0052                                        u2390 075C  
                                      u2631 01A0                                        u2391 0758  
                                      u2800 02C8                                        u2560 0110  
                                      u2480 00AA                                        u2801 02C4  
                                      u2561 010C                                        u2481 00A2  
                                      u2810 02F6                                        u2730 0248  
                                      u2650 01C4                                        u2570 013E  
                                      u2458 006C                                        _T4PR 003F9F  
                                      u2811 02EE                                        u2731 0244  
                                      u2651 01C0                                        u2571 0136  
                                      u2555 00F4                                        u2740 0276  
                                      u2660 01D6                                        u2628 0190  
                                      u2548 00F0                                        u2741 026E  
                                      u2725 022C                                        u2661 01CE  
                                      u2910 0398                                        u2718 0228  
                                      u2478 008E                                        u2911 0394  
                                      u2920 03C6                                        u2840 0318  
                                      u2760 0294                                        u2648 01AA  
                                      u2921 03BE                                        u2905 037C  
                                      u2841 0314                                        u2761 0290  
                                      u2850 0346                                        u2770 02A6  
                                      u2690 01F8                                        u2498 00AC  
                                      u2851 033E                                        u2835 02FC  
                                      u2771 029E                                        u2691 01F4  
                                      u2595 0144                                        u2828 02F8  
                                      u2588 0140                                        _PMD0 0039C0  
                                      u2685 01DC                                        _PMD1 0039C1  
                                      u2950 03E8                                        u2870 0364  
                                      u2758 0278                                        u2678 01D8  
                                      _PMD2 0039C2                                        u2951 03E4  
                                      u2871 0360                                        _PMD3 0039C3  
                                      u2960 041A                                        u2880 0376  
                                      _PMD4 0039C4                                        u2961 0412  
                                      u2945 03CC                                        u2881 036E  
                                      _PMD5 0039C5                                        u2938 03C8  
                                      _PMD6 0039C6                                        u2795 02AC  
                                      _PMD7 0039C7                                        u2980 043C  
                                      u2868 0348                                        u2788 02A8  
                                      u2981 0434                                        u2978 041C  
                                      u2898 0378                                        u2998 043E  
                                      _TMR4 003F9E                                        _WPUA 003A41  
                                      _WPUB 003A51                                        _WPUC 003A61  
                                      _WPUE 003A81                                        _main 0F5C  
                                      fsr2h 003FDA                                        indf2 003FDF  
                                      fsr1l 003FE1                                        fsr2l 003FD9  
                                      prodh 003FF4                                        prodl 003FF3  
                                      start 001A                                ___param_bank 000000  
                 __size_of_DATAEE_WriteByte 0046              __size_of_OSCILLATOR_Initialize 0018  
             __end_of_OSCILLATOR_Initialize 170E                                ?_bytecleanup 0049  
                                     _ADCAP 003EF5                                       _ADACT 003EFE  
                                     ?_main 0049                                       _ADCLK 003EFF  
                                     _ADCNT 003EEB                                       _ADPCH 003EF1  
                                     _ADREF 003EFD                                       _ADRPT 003EEC  
                   _stickIdx@joysticks$F568 0024                     _stickIdx@joysticks$F777 0020  
                                     _T4CON 003FA0                                       _T4HLT 003FA1  
                           __end_of___lwdiv 1300                                       _T4TMR 003F9E  
                                     _T4RST 003FA3                                       i2l547 1354  
                                     _OSCEN 0039DD                                       _TRISA 003FC2  
                                     _TRISB 003FC3                                       _TRISC 003FC4  
                           _TMR4_Initialize 168E                             _DATAEE_ReadByte 16C4  
                             _getmultiplier 1420                               _gLowThreshold 0045  
                 _tmpcenter@joysticks$F2017 007C                   _tmpcenter@joysticks$F2323 0072  
                 _tmpcenter@joysticks$F2173 0005                   _tmpcenter@joysticks$F2416 0068  
                 _tmpcenter@joysticks$F1923 0086                            ?_SMT1_Initialize 0049  
                                     tablat 003FF5                             __end_of_slinjim 1648  
                                     status 003FD8                     _tmphighm@joysticks$F566 0098  
                   _tmphighm@joysticks$F775 008E                             __initialization 1196  
                              __end_of_main 105A               _initiatedRead@joysticks$F2021 0017  
             _initiatedRead@joysticks$F2420 000E               _initiatedRead@joysticks$F2327 0011  
             _initiatedRead@joysticks$F2177 0014               _initiatedRead@joysticks$F1927 001B  
                           ??_commandreader 0049                                      ??_main 005C  
                             __activetblptr 000002                              ?_getmultiplier 0054  
                   _tmphigh@joysticks$F2015 0080                     _tmphigh@joysticks$F2321 0076  
                   _tmphigh@joysticks$F2171 0009                     _tmphigh@joysticks$F2414 006C  
                   _tmphigh@joysticks$F1921 008A                                      _ADACCH 003EE9  
                                    _ADACCL 003EE8                                      _ADACCU 003EEA  
                                    _ADACQH 003EF4                                      _ADACQL 003EF3  
              ??_IOCBF2_SetInterruptHandler 004F                                      _ADCON0 003EF8  
                                    _ADCON1 003EF9                                      _ADCON2 003EFA  
                                    _ADCON3 003EFB                                      _ADERRH 003EE3  
                                    _ADERRL 003EE2                                      _ADLTHH 003EDF  
                                    _ADLTHL 003EDE                                      _ADRESH 003EF0  
                                    _ADRESL 003EEF                                      _ADPREH 003EF7  
                                    _ADPREL 003EF6                                      _CCPR1H 003F7D  
                                    _CCPR1L 003F7C                    _stickIdx@joysticks$F2020 0018  
                  _stickIdx@joysticks$F2326 0012                                      _ADSTAT 003EFC  
                  _stickIdx@joysticks$F2176 0015                    _stickIdx@joysticks$F2419 000F  
                  _stickIdx@joysticks$F1926 001C                                      _ADUTHH 003EE1  
                                    _ADUTHL 003EE0                                      _ANSELA 003A40  
                                    _ANSELB 003A50                                      _ANSELC 003A60  
                                    _RB1I2C 003A5A                                      _RB2I2C 003A5B  
                                    _RC3I2C 003A6A                                      _RC4I2C 003A6B  
                                    _RB3PPS 003A0B                            ?_PWM1_Initialize 0049  
                                    _ODCONA 003A42                                      _ODCONB 003A52  
                                    _ODCONC 003A62                                      i2l2921 1328  
                                    i2l2923 1336                                      i2l2925 134C  
                                    i2l2927 1350                                      i2l2919 1318  
                                    _INLVLA 003A44                                      _INLVLB 003A54  
                                    _INLVLC 003A64                                      _INLVLE 003A84  
                                    _TABLAT 003FF5                                      _OSCFRQ 0039DF  
                                    _NVMDAT 0039E3                                      _SMT1PR 003F1B  
                              _CCPTMRS0bits 003F5E                                      ___wmul 15CE  
                                 ??___lwdiv 0051                           _sx_highMultiplier 00C5  
                           slinjim@dividend 0053                                      _cx_low 00D1  
                                    _cy_low 00CB                                      _memset 0C8A  
                             ?_loadsettings 0049                     __end_of_TMR4_Initialize 16AA  
                                _gConOutIdx 002C                                      clear_0 11E0  
                                    clear_1 11EC                                      clear_2 11F8  
                                    isa$std 000001         __size_of_IOCBF2_SetInterruptHandler 000A  
                                    _tmplow 00A6                                      _sx_low 0041  
                                    _sy_low 003B                     __end_of_DATAEE_ReadByte 16DE  
                     __size_of_checkbuttons 045A                             _ADCC_Initialize 136E  
                            _PMD_Initialize 1648                                __pdataCOMRAM 002F  
                                    tblptrh 003FF7                                      tblptrl 003FF6  
                                    tblptru 003FF8                                   ??_slinjim 0057  
                       _setstickmultipliers 0E1A  IOCBF2_SetInterruptHandler@InterruptHandler 004D  
             __size_of_INTERRUPT_Initialize 000A            ??_INTERRUPT_InterruptManagerHigh 0049  
           ?_INTERRUPT_InterruptManagerHigh 0049                           _SYSTEM_Initialize 166C  
                                __accesstop 0060                     __end_of__initialization 120A  
                        ?_SYSTEM_Initialize 0049                               ___rparam_used 000001  
                  _tmphighm@joysticks$F2018 007A                    _tmphighm@joysticks$F2324 0070  
                  _tmphighm@joysticks$F2174 0003                    _tmphighm@joysticks$F2417 0066  
                  _tmphighm@joysticks$F1924 0084                    _tmpcenter@joysticks$F565 009A  
                  _tmpcenter@joysticks$F774 0090                        ?_setstickmultipliers 0049  
                            __pcstackCOMRAM 0049                                _checkbuttons 001E  
                              __pidataBANK0 15F8                         ??_SYSTEM_Initialize 004F  
                            _gConBitCounter 0048                            _sx_lowMultiplier 00C3  
                          _DATAEE_WriteByte 1476                              ??_loadsettings 0059  
                    __end_of_PMD_Initialize 166C                             ??_getmultiplier 0058  
               __size_of_setdefaultsettings 00B8                          __size_of_desyncfix 0014  
                        getmultiplier@ratio 00D5                   __end_of_SYSTEM_Initialize 168E  
                        _getmultiplier$3298 00D7                                  __pbssBANK0 0060  
                                __pbssBANK1 0100                              _gInCommandByte 0029  
                                   IVTBASEH 003FD6                                     IVTBASEL 003FD5  
                                   IVTBASEU 003FD7                       ??_setstickmultipliers 0058  
                             _initiatedRead 0026                                     ?___wmul 004D  
                   __end_of_ADCC_Initialize 13CA                                     _CCP1CON 003F7E  
                                   _ADFLTRH 003EE7                                     _ADFLTRL 003EE6  
                                   ?_memset 004D                                     _ADPREVH 003EEE  
                                   _ADPREVL 003EED                                  _bitgrabber 1500  
                          ?_TMR4_Initialize 0049                                     _ADSTPTH 003EE5  
                                   _ADSTPTL 003EE4                             ?_PMD_Initialize 0049  
                          _gCommandPollMask 0043                            ?_DATAEE_ReadByte 0049  
                                   _OSCCON1 0039D9                                     _OSCCON3 0039DB  
        __end_of_IOCBF2_SetInterruptHandler 172C                  _IOCBF2_SetInterruptHandler 1722  
                                   _TBLPTRH 003FF7                                     _TBLPTRL 003FF6  
                                   _TBLPTRU 003FF8                                     _SMT1CLK 003F21  
                                   _NVMADRL 0039E0                                     _OSCTUNE 0039DE  
                                   _SMT1CPR 003F15                                     _SMT1CPW 003F18  
                                   _NVMCON2 0039E6                                     _SMT1SIG 003F22  
                                   _SMT1PRH 003F1C                                     _SMT1PRL 003F1B  
                                   _SMT1PRU 003F1D                                     _SMT1WIN 003F23  
                                   _SMT1TMR 003F12                                     i2u99_40 1328  
                                   i2u99_41 1324                                     _SLRCONA 003A43  
                                   _SLRCONB 003A53                                     _SLRCONC 003A63  
                      DATAEE_WriteByte@bAdd 004E                    __size_of_calibratesticks 028C  
                                 ?_bytepush 0049                               ?_savesettings 0049  
                                   __Hparam 0000                                     __Lparam 0000  
                         __end_of_desyncfix 1722                       getmultiplier@distance 00D3  
                           __size_of___wmul 002A                                     ___lwdiv 128C  
                                   __pcinit 1196                             __size_of_memset 0190  
                                   __ramtop 0800                           _cy_highMultiplier 00B9  
                                   __ptext0 0F5C                                     __ptext1 14BC  
                                   __ptext2 0E1A                                     __ptext3 1420  
                                   __ptext4 128C                                     __ptext5 0478  
                                   __ptext6 1622                                     __ptext7 15CE  
                                   __ptext8 1112                                     __ptext9 105A  
                            _gConPollPacket 002F                                     _cx_high 00CD  
                        _gCommandOriginMask 0044                                     _cy_high 00C7  
                     _OSCILLATOR_Initialize 16F6                             _gInBitBufferIdx 002B  
                  _clearRead@joysticks$F570 0022                    _clearRead@joysticks$F779 001E  
                               _gConOutByte 002E                                   _T4CONbits 003FA0  
                  ??_PIN_MANAGER_Initialize 004F                                 _SettingData 0007D3  
                                 _IOCBFbits 003A57                                   _IOCBNbits 003A56  
                                 _IOCBPbits 003A55                                   _T4HLTbits 003FA1  
                                   _slinjim 1622                                     _tmphigh 00A8  
                                   _sx_high 003D                                     _sy_high 0037  
                                   _tmplowm 00A0                  __size_of_SYSTEM_Initialize 0022  
                                _scansticks 0478                   _clearRead@joysticks$F2022 0016  
                 _clearRead@joysticks$F2421 000D                   _clearRead@joysticks$F2328 0010  
                 _clearRead@joysticks$F2178 0013                   _clearRead@joysticks$F1928 001A  
                      end_of_initialization 120A                        __end_of_loadsettings 1196  
                                 _T4RSTbits 003FA3                                     memset@c 004F  
                                   memset@k 0055                                     memset@n 0051  
                                   memset@s 0057                               __Lmediumconst 0000  
                                ??_bytepush 0049                              ??_savesettings 0050  
                  __size_of_SMT1_Initialize 002C                                     postdec1 003FE5  
                                   postinc0 003FEE                            ?_ADCC_Initialize 0049  
                               ?_bitgrabber 0049                                   _PORTAbits 003FCA  
                                 _PORTBbits 003FCB                                   _PORTCbits 003FCC  
                         _gConProbeResponse 00B4                     _IOCBF2_InterruptHandler 00E3  
                       savesettings@writing 0050                    __end_of_DATAEE_WriteByte 14BC  
                               _CCP1CONbits 003F7E                    __size_of_PWM1_Initialize 0018  
                         ??_calibratesticks 004D                __end_of_INTERRUPT_Initialize 1736  
                                _zerosticks 14BC                              __end_of___wmul 15F8  
                          _sy_lowMultiplier 00BF                               __pidataCOMRAM 16AA  
                    ?_OSCILLATOR_Initialize 0049                              __end_of_memset 0E1A  
                       start_initialization 1196             __size_of_PIN_MANAGER_Initialize 0078  
                          _stickcalibration 0019                                 ?_scansticks 0049  
                                ivt0x8_base 0008                      _tmphigh@joysticks$F563 009E  
                    _tmphigh@joysticks$F772 0094                         DATAEE_ReadByte@bAdd 004D  
                          ??_PMD_Initialize 004D                                   _gInPacket 0060  
                                  ??___wmul 0051                            _cx_lowMultiplier 00BB  
                             _gInBitCounter 0047                                 __pdataBANK0 00AA  
                                 _gInStatus 0046                                    ??_memset 0053  
                         ??_SMT1_Initialize 004D                                  memset@dest 004D  
                             ??_bytecleanup 0049                  __end_of_setdefaultsettings 1112  
                      __end_of_savesettings 1574                                 __pbssCOMRAM 0001  
                             __pcstackBANK0 00D3                       __size_of_loadsettings 0084  
                     __end_of_getmultiplier 1476                 ?_IOCBF2_SetInterruptHandler 004D  
                         _checkbuttons$2330 00D3                           _checkbuttons$2331 00D5  
                         _checkbuttons$2332 00D7                           _checkbuttons$2333 00D9  
                         _checkbuttons$2334 00DB                           _checkbuttons$2335 00DD  
                         _checkbuttons$2336 00DF                           _checkbuttons$2337 00E1  
                         getmultiplier@high 0054                 __end_of_setstickmultipliers 0F5C  
                                 __pnvBANK0 00E3                                   _clearRead 0025  
                          ___lwdiv@dividend 004D                      _PIN_MANAGER_Initialize 1214  
                             _gConByteCount 002D                                    ?___lwdiv 004D  
                               ?_zerosticks 0049                         __size_of_scansticks 0352  
                              _loadsettings 1112                                   _desyncfix 170E  
                         ??_PWM1_Initialize 004D                                   _cx_center 00CF  
                                 _cy_center 00C9                    __size_of_TMR4_Initialize 001C  
                                  ?_slinjim 0053                            ___lwdiv@quotient 0052  
                  __size_of_DATAEE_ReadByte 001A                                    _T4CLKCON 003FA2  
                      _INTERRUPT_Initialize 172C                              ___wmul@product 0051  
                                  _IPR1bits 003981                                    _PIE1bits 003991  
                             savesettings@i 0052                                    i2u100_40 1336  
                                  i2u100_41 1332                                    i2u101_40 134C  
                                  i2u101_41 1348                                    _PIR0bits 0039A0  
                                  _PIR1bits 0039A1                                    _PIR7bits 0039A7  
                                  _SMT1CON0 003F1E                                    _SMT1CON1 003F1F  
                                  _SMT1CPWL 003F18                                    _SMT1STAT 003F20  
                              ??_bitgrabber 0049                                   _testcount 0021  
                                ?_desyncfix 0049                                   _testpulse 001D  
                         _sy_highMultiplier 00C1                                   _tmpcenter 00A4  
                                _ADCON0bits 003EF8                                  _ADCON1bits 003EF9  
                                _ADCON2bits 003EFA                                   _sx_center 003F  
                                _ADCON3bits 003EFB                           ___wmul@multiplier 004D  
                                 _sy_center 0039                       DATAEE_WriteByte@bData 004D  
                              _SMT1CON0bits 003F1E                                _SMT1CON1bits 003F1F  
                               _INTCON0bits 003FD2                                   copy_data0 11AA  
                                 copy_data1 11CC                       ?_INTERRUPT_Initialize 0049  
              _initiatedRead@joysticks$F569 0023                _initiatedRead@joysticks$F778 001F  
                         ?_DATAEE_WriteByte 004D                             _calibratesticks 07CA  
                       __size_of_zerosticks 0044                          ??_DATAEE_WriteByte 004E  
                                _ADSTATbits 003EFC                                    __Hrparam 0000  
                             _gInPulseWidth 002A                                    __Lrparam 0000  
                             ?_checkbuttons 0049                                _gInBitBuffer 0100  
                   ??_OSCILLATOR_Initialize 004D                                _SMT1STATbits 003F20  
                          __size_of___lwdiv 0074                       __size_of_savesettings 0036  
                                  _adc_read 000B                                 _bytecleanup 1574  
                          getmultiplier@low 0056                          _gConOriginResponse 00AA  
                  __size_of_ADCC_Initialize 005C                                    __pivt0x8 0008  
                           ___lwdiv@divisor 004F                             ___lwdiv@counter 0051  
                                  __ptext10 153E                                    __ptext11 1476  
                                  __ptext20 16DE                                    __ptext12 0C8A  
                                  __ptext21 1648                                    __ptext13 16C4  
                                  __ptext22 1214                                    __ptext14 170E  
                                  __ptext23 1722                                    __ptext15 001E  
                                  __ptext24 16F6                                    __ptext16 07CA  
                                  __ptext25 172C                                    __ptext17 166C  
                                  __ptext26 136E                                    __ptext18 168E  
                                  __ptext27 1300                                    __ptext19 15A2  
                              ??_scansticks 00D3                            __size_of_slinjim 0026  
                              _gInPacketIdx 0028                 DATAEE_WriteByte@GIEBitValue 004F  
                         ??_TMR4_Initialize 004D                               __size_of_main 00FE  
                                  _bytepush 0A56                           ??_DATAEE_ReadByte 004D  
                           _SMT1_Initialize 15A2                           slinjim@conversion 0057  
                              _savesettings 153E                              ??_checkbuttons 004D  
                                  isa$xinst 000000                                    _stickIdx 0027  
                         _cx_highMultiplier 00BD                                    _tmphighm 00A2  
                          _cy_lowMultiplier 00B7                                 ??_desyncfix 004D  
                        __end_of_scansticks 07CA                                 _NVMCON1bits 0039E5  
                       loadsettings@loading 0059                     __end_of_calibratesticks 0A56  
                    ??_INTERRUPT_Initialize 004D                                    intlevel2 0000  
                        _setdefaultsettings 105A                     ?_PIN_MANAGER_Initialize 0049  
                   _tmplowm@joysticks$F2019 0078                     _tmplowm@joysticks$F2325 006E  
                   _tmplowm@joysticks$F2175 0001                     _tmplowm@joysticks$F2418 0064  
                   _tmplowm@joysticks$F1925 0082                             _PWM1_Initialize 16DE  
                       ?_setdefaultsettings 0049                                ??_zerosticks 004D  
                                _SMT1SIGPPS 003AD2      __end_of_INTERRUPT_InterruptManagerHigh 136E  
   __size_of_INTERRUPT_InterruptManagerHigh 006E              _INTERRUPT_InterruptManagerHigh 1300  
                             _commandreader 13CA              _IOCBF2_DefaultInterruptHandler 000000  
                    _tmplowm@joysticks$F567 0096                      _tmplowm@joysticks$F776 008C  
                      ??_setdefaultsettings 004D                           slinjim@multiplier 0055  
                   __end_of_SMT1_Initialize 15CE              __end_of_PIN_MANAGER_Initialize 128C  
                         ??_ADCC_Initialize 004D                          __end_of_zerosticks 1500  
                             loadsettings@i 005B                      _tmplow@joysticks$F2016 007E  
                    _tmplow@joysticks$F2322 0074                      _tmplow@joysticks$F2172 0007  
                    _tmplow@joysticks$F2415 006A                      _tmplow@joysticks$F1922 0088  
                     _tmplow@joysticks$F564 009C                       _tmplow@joysticks$F773 0092  
